
FreeRTOS.elf:     file format elf32-littleriscv
FreeRTOS.elf
architecture: riscv:rv32, flags 0x00000112:
EXEC_P, HAS_SYMS, D_PAGED
start address 0x00000000

Program Header:
    LOAD off    0x00001000 vaddr 0x00000000 paddr 0x00000000 align 2**12
         filesz 0x00004574 memsz 0x00004574 flags r-x
    LOAD off    0x00006000 vaddr 0x20000000 paddr 0x00004574 align 2**12
         filesz 0x000000a0 memsz 0x00003830 flags rw-
    LOAD off    0x00006800 vaddr 0x2000f800 paddr 0x2000f800 align 2**12
         filesz 0x00000000 memsz 0x00000800 flags rw-

Sections:
Idx Name          Size      VMA       LMA       File off  Algn
  0 .init         00000004  00000000  00000000  00001000  2**1
                  CONTENTS, ALLOC, LOAD, READONLY, CODE
  1 .vector       000001bc  00000004  00000004  00001004  2**1
                  CONTENTS, ALLOC, LOAD, READONLY, CODE
  2 .text         00004374  00000200  00000200  00001200  2**8
                  CONTENTS, ALLOC, LOAD, READONLY, CODE
  3 .fini         00000000  00004574  00004574  000060a0  2**0
                  CONTENTS, ALLOC, LOAD, CODE
  4 .dalign       00000000  20000000  20000000  000060a0  2**0
                  CONTENTS
  5 .dlalign      00000000  00004574  00004574  000060a0  2**0
                  CONTENTS
  6 .data         000000a0  20000000  00004574  00006000  2**2
                  CONTENTS, ALLOC, LOAD, DATA
  7 .bss          00003790  200000a0  00004614  000060a0  2**2
                  ALLOC
  8 .stack        00000800  2000f800  2000f800  00006800  2**0
                  ALLOC
  9 .debug_info   00019326  00000000  00000000  000060a0  2**0
                  CONTENTS, READONLY, DEBUGGING
 10 .debug_abbrev 00003ebb  00000000  00000000  0001f3c6  2**0
                  CONTENTS, READONLY, DEBUGGING
 11 .debug_loc    00007d10  00000000  00000000  00023281  2**0
                  CONTENTS, READONLY, DEBUGGING
 12 .debug_aranges 00000ae0  00000000  00000000  0002af98  2**3
                  CONTENTS, READONLY, DEBUGGING
 13 .debug_ranges 00000f20  00000000  00000000  0002ba78  2**3
                  CONTENTS, READONLY, DEBUGGING
 14 .debug_line   00014f0b  00000000  00000000  0002c998  2**0
                  CONTENTS, READONLY, DEBUGGING
 15 .debug_str    00004390  00000000  00000000  000418a3  2**0
                  CONTENTS, READONLY, DEBUGGING
 16 .comment      00000033  00000000  00000000  00045c33  2**0
                  CONTENTS, READONLY
 17 .debug_frame  00002624  00000000  00000000  00045c68  2**2
                  CONTENTS, READONLY, DEBUGGING
 18 .stab         00000084  00000000  00000000  0004828c  2**2
                  CONTENTS, READONLY, DEBUGGING
 19 .stabstr      00000117  00000000  00000000  00048310  2**0
                  CONTENTS, READONLY, DEBUGGING
SYMBOL TABLE:
00000000 l    d  .init	00000000 .init
00000004 l    d  .vector	00000000 .vector
00000200 l    d  .text	00000000 .text
00004574 l    d  .fini	00000000 .fini
20000000 l    d  .dalign	00000000 .dalign
00004574 l    d  .dlalign	00000000 .dlalign
20000000 l    d  .data	00000000 .data
200000a0 l    d  .bss	00000000 .bss
2000f800 l    d  .stack	00000000 .stack
00000000 l    d  .debug_info	00000000 .debug_info
00000000 l    d  .debug_abbrev	00000000 .debug_abbrev
00000000 l    d  .debug_loc	00000000 .debug_loc
00000000 l    d  .debug_aranges	00000000 .debug_aranges
00000000 l    d  .debug_ranges	00000000 .debug_ranges
00000000 l    d  .debug_line	00000000 .debug_line
00000000 l    d  .debug_str	00000000 .debug_str
00000000 l    d  .comment	00000000 .comment
00000000 l    d  .debug_frame	00000000 .debug_frame
00000000 l    d  .stab	00000000 .stab
00000000 l    d  .stabstr	00000000 .stabstr
00000000 l    df *ABS*	00000000 ./Startup/startup_ch32v30x_D8C.o
00000004 l       .vector	00000000 _vector_base
00000000 l    df *ABS*	00000000 ./FreeRTOS/portable/GCC/RISC-V/portASM.o
00000264 l       .text	00000000 processed_source
00000428 l       .text	00000000 chip_specific_stack_frame
00000000 l    df *ABS*	00000000 CAN.c
00000000 l    df *ABS*	00000000 UART.c
00000736 l     F .text	0000009a ring_buffer_push_huge
00000000 l    df *ABS*	00000000 ch32v30x_it.c
00000000 l    df *ABS*	00000000 main.c
00000000 l    df *ABS*	00000000 system_ch32v30x.c
00000000 l    df *ABS*	00000000 ch32v30x_can.c
00000000 l    df *ABS*	00000000 ch32v30x_dbgmcu.c
00000000 l    df *ABS*	00000000 ch32v30x_dma.c
00000000 l    df *ABS*	00000000 ch32v30x_gpio.c
00000000 l    df *ABS*	00000000 ch32v30x_misc.c
00000000 l    df *ABS*	00000000 ch32v30x_rcc.c
20000010 l     O .data	00000010 APBAHBPrescTable
20000084 l     O .data	00000004 ADCPrescTable
00000000 l    df *ABS*	00000000 ch32v30x_usart.c
00000000 l    df *ABS*	00000000 heap_4.c
000018a6 l     F .text	0000004c prvInsertBlockIntoFreeList
20000634 l     O .bss	00003000 ucHeap
200000ac l     O .bss	00000004 pxEnd
200000b0 l     O .bss	00000004 xBlockAllocatedBit
200000b4 l     O .bss	00000004 xFreeBytesRemaining
200000b8 l     O .bss	00000004 xMinimumEverFreeBytesRemaining
200000bc l     O .bss	00000004 xNumberOfSuccessfulAllocations
200000c0 l     O .bss	00000004 xNumberOfSuccessfulFrees
200000c4 l     O .bss	00000008 xStart
00000000 l    df *ABS*	00000000 port.c
20000088 l     O .data	00000004 uxCriticalNesting
00000000 l    df *ABS*	00000000 list.c
00000000 l    df *ABS*	00000000 queue.c
00001ce6 l     F .text	0000001a prvIsQueueEmpty
00001d00 l     F .text	00000028 prvCopyDataFromQueue
00001d28 l     F .text	0000006e prvUnlockQueue
00000000 l    df *ABS*	00000000 tasks.c
000020c4 l     F .text	00000024 prvResetNextTaskUnblockTime
000020e8 l     F .text	000000a2 prvAddCurrentTaskToDelayedList
0000218a l     F .text	00000052 prvIdleTask
20003674 l     O .bss	0000012c pxReadyTasksLists
200037a0 l     O .bss	00000014 xDelayedTaskList1
200037b4 l     O .bss	00000014 xDelayedTaskList2
200037c8 l     O .bss	00000014 xPendingReadyList
200037dc l     O .bss	00000014 xSuspendedTaskList
200037f0 l     O .bss	00000014 xTasksWaitingTermination
200000d0 l     O .bss	00000004 pxDelayedTaskList
200000d4 l     O .bss	00000004 pxOverflowDelayedTaskList
200000d8 l     O .bss	00000004 uxCurrentNumberOfTasks
200000dc l     O .bss	00000004 uxDeletedTasksWaitingCleanUp
200000e0 l     O .bss	00000004 uxSchedulerSuspended
200000e4 l     O .bss	00000004 uxTaskNumber
200000e8 l     O .bss	00000004 uxTopReadyPriority
200000ec l     O .bss	00000004 xIdleTaskHandle
200000f0 l     O .bss	00000004 xNextTaskUnblockTime
200000f4 l     O .bss	00000004 xNumOfOverflows
200000f8 l     O .bss	00000004 xPendedTicks
200000fc l     O .bss	00000004 xSchedulerRunning
20000100 l     O .bss	00000004 xTickCount
20000104 l     O .bss	00000004 xYieldPending
00000000 l    df *ABS*	00000000 timers.c
00002b40 l     F .text	00000066 prvCheckForValidListAndQueue
00002ba6 l     F .text	00000046 prvInsertTimerInActiveList
00002bec l     F .text	00000028 prvReloadTimer
00002c14 l     F .text	00000044 prvProcessExpiredTimer
00002c58 l     F .text	0000002e prvSwitchTimerLists
00002c86 l     F .text	0000018a prvTimerTask
20003804 l     O .bss	00000014 xActiveTimerList1
20003818 l     O .bss	00000014 xActiveTimerList2
20000108 l     O .bss	00000004 pxCurrentTimerList
2000010c l     O .bss	00000004 pxOverflowTimerList
20000110 l     O .bss	00000004 xLastTime.6323
20000114 l     O .bss	00000004 xTimerQueue
20000118 l     O .bss	00000004 xTimerTaskHandle
00000000 l    df *ABS*	00000000 debug.c
2000011c l     O .bss	00000002 p_ms
2000011e l     O .bss	00000001 p_us
20000090 l     O .data	00000004 curbrk.5274
00000000 l    df *ABS*	00000000 memcpy.c
00000000 l    df *ABS*	00000000 printf.c
00000000 l    df *ABS*	00000000 putchar.c
00000000 l    df *ABS*	00000000 puts.c
00000000 l    df *ABS*	00000000 wbuf.c
00000000 l    df *ABS*	00000000 wsetup.c
00000000 l    df *ABS*	00000000 fflush.c
00000000 l    df *ABS*	00000000 findfp.c
000034e0 l     F .text	00000066 std
00000000 l    df *ABS*	00000000 fwalk.c
00000000 l    df *ABS*	00000000 makebuf.c
00000000 l    df *ABS*	00000000 nano-mallocr.c
00000000 l    df *ABS*	00000000 nano-mallocr.c
00000000 l    df *ABS*	00000000 nano-vfprintf.c
00003982 l     F .text	00000028 __sfputc_r
00000000 l    df *ABS*	00000000 nano-vfprintf_i.c
00000000 l    df *ABS*	00000000 putc.c
00000000 l    df *ABS*	00000000 sbrkr.c
00000000 l    df *ABS*	00000000 stdio.c
00000000 l    df *ABS*	00000000 writer.c
00000000 l    df *ABS*	00000000 closer.c
00000000 l    df *ABS*	00000000 fstatr.c
00000000 l    df *ABS*	00000000 isattyr.c
00000000 l    df *ABS*	00000000 lseekr.c
00000000 l    df *ABS*	00000000 memchr.c
00000000 l    df *ABS*	00000000 mlock.c
00000000 l    df *ABS*	00000000 readr.c
00000000 l    df *ABS*	00000000 close.c
00000000 l    df *ABS*	00000000 fstat.c
00000000 l    df *ABS*	00000000 isatty.c
00000000 l    df *ABS*	00000000 lseek.c
00000000 l    df *ABS*	00000000 read.c
00000000 l    df *ABS*	00000000 impure.c
20000020 l     O .data	00000060 impure_data
00000000 l    df *ABS*	00000000 reent.c
00000e0c  w      .text	00000000 EXTI2_IRQHandler
0000308c g     F .text	0000002a putchar
00000e0c  w      .text	00000000 TIM8_TRG_COM_IRQHandler
00000e0c  w      .text	00000000 TIM8_CC_IRQHandler
00004218 g     F .text	00000030 _isatty_r
000030b6 g     F .text	000000d4 _puts_r
00004248 g     F .text	00000034 _lseek_r
00001342 g     F .text	00000014 DMA_Cmd
00000e0c  w      .text	00000000 UART8_IRQHandler
00001c3c g     F .text	00000042 vPortExitCritical
0000304c g     F .text	00000040 printf
20000880 g       .data	00000000 __global_pointer$
000004ee g     F .text	00000028 .hidden __riscv_save_8
00000e0c  w      .text	00000000 TIM1_CC_IRQHandler
0000414a g     F .text	00000030 __sseek
00003596 g     F .text	00000066 __sinit
00003194 g     F .text	000000bc __swbuf_r
00000a48 g     F .text	00000010 HardFault_Handler
0000206e g     F .text	00000056 vQueueWaitForMessageRestricted
00000f88 g     F .text	000000ee CAN_FilterInit
00003550 g     F .text	00000046 __sfmoreglue
00004296 g     F .text	00000002 __malloc_unlock
0000053a g     F .text	0000000c .hidden __riscv_restore_3
00000e0c  w      .text	00000000 TIM6_IRQHandler
00001bee g     F .text	00000038 SysTick_Handler
00001542 g     F .text	00000052 NVIC_Init
00000e0c  w      .text	00000000 PVD_IRQHandler
00000e0c  w      .text	00000000 SDIO_IRQHandler
00000e0c  w      .text	00000000 TIM9_BRK_IRQHandler
00000526 g     F .text	00000020 .hidden __riscv_restore_10
00000e0c  w      .text	00000000 DMA2_Channel8_IRQHandler
00000a46 g     F .text	00000002 NMI_Handler
00001132 g     F .text	00000062 CAN_TransmitStatus
00000e0c  w      .text	00000000 CAN2_RX1_IRQHandler
00000e0c  w      .text	00000000 EXTI3_IRQHandler
000004ee g     F .text	00000028 .hidden __riscv_save_11
00001194 g     F .text	0000000a DBGMCU_GetCHIPID
200000cc g     O .bss	00000004 pxCurrentTCB
00000e0c  w      .text	00000000 USBHS_IRQHandler
00001860 g     F .text	0000000a USART_GetFlagStatus
00000e0c  w      .text	00000000 DMA2_Channel9_IRQHandler
000041e6 g     F .text	00000032 _fstat_r
00000e0c  w      .text	00000000 TIM10_CC_IRQHandler
2000382c g     O .bss	00000004 errno
200000a0 g       .bss	00000000 _sbss
00000800 g       *ABS*	00000000 __stack_size
00002ed8 g     F .text	0000005a USART_Printf_Init
0000130a g     F .text	00000038 DMA_Init
00000e0c  w      .text	00000000 USBFS_IRQHandler
00002a3e g     F .text	00000016 vTaskInternalSetTimeOutState
0000053a g     F .text	0000000c .hidden __riscv_restore_2
0000090a g     F .text	0000003e ring_buffer_pop
00001b60 g     F .text	0000008e xPortStartScheduler
00002f9a g     F .text	000000b2 memcpy
00002896 g     F .text	00000048 vTaskPlaceOnEventList
200000a4 g     O .bss	00000004 UART_Task_Handler
00003546 g     F .text	0000000a _cleanup_r
00001462 g     F .text	000000d6 GPIO_PinRemapConfig
00001b22  w    F .text	0000003e vPortSetupTimerInterrupt
00000e0c  w      .text	00000000 EXTI0_IRQHandler
00000e0c  w      .text	00000000 I2C2_EV_IRQHandler
00000e0c  w      .text	00000000 TIM10_TRG_COM_IRQHandler
0000318a g     F .text	0000000a puts
00001a7c g     F .text	000000a6 vPortFree
20000080 g     O .data	00000004 SystemCoreClock
20010000 g       .stack	00000000 __freertos_irq_stack_top
00001858 g     F .text	00000008 USART_ReceiveData
000042dc g     F .text	00000010 _fstat
00000004 g       .init	00000000 _einit
00001368 g     F .text	00000004 DMA_SetCurrDataCounter
00001728 g     F .text	0000001e RCC_APB2PeriphClockCmd
000004e6 g     F .text	00000030 .hidden __riscv_save_12
00000e0c  w      .text	00000000 CAN2_SCE_IRQHandler
00000e0c  w      .text	00000000 ADC1_2_IRQHandler
000013a2 g     F .text	000000c0 GPIO_Init
00000e0c  w      .text	00000000 Break_Point_Handler
00000526 g     F .text	00000020 .hidden __riscv_restore_11
200000a8 g     O .bss	00000004 NVIC_Priority_Group
00000e0c  w      .text	00000000 SPI1_IRQHandler
000017f2 g     F .text	00000016 USART_Cmd
000040a4 g     F .text	00000032 _sbrk_r
00000e0c  w      .text	00000000 TAMPER_IRQHandler
00000516 g     F .text	0000000c .hidden __riscv_save_1
0000053a g     F .text	0000000c .hidden __riscv_restore_0
00004298 g     F .text	00000034 _read_r
00001c92 g     F .text	00000006 vListInitialiseItem
000004fc g     F .text	0000001a .hidden __riscv_save_7
00001ebc g     F .text	00000146 xQueueReceive
00000e0c  w      .text	00000000 CAN2_RX0_IRQHandler
20003634 g     O .bss	00000040 xQueueRegistry
00001398 g     F .text	0000000a DMA_ClearITPendingBit
00000e0c  w      .text	00000000 TIM8_UP_IRQHandler
00001746 g     F .text	0000001e RCC_APB1PeriphClockCmd
00000e0c  w      .text	00000000 Ecall_M_Mode_Handler
2000f800 g       .stack	00000000 _heap_end
20000128 g     O .bss	00000101 USART1_DMA_CTRL
000042ec g     F .text	00000010 _isatty
2000009c g     O .data	00000004 _global_impure_ptr
00000530 g     F .text	00000016 .hidden __riscv_restore_5
00000e0c  w      .text	00000000 DMA2_Channel2_IRQHandler
0000170a g     F .text	0000001e RCC_AHBPeriphClockCmd
00000e0c  w      .text	00000000 DMA1_Channel4_IRQHandler
00002f70 g     F .text	0000002a _sbrk
000018f2 g     F .text	0000018a pvPortMalloc
00001c7e g     F .text	00000014 vListInitialise
00000e0c  w      .text	00000000 TIM9_UP_IRQHandler
00000530 g     F .text	00000016 .hidden __riscv_restore_6
00000e0c  w      .text	00000000 USART3_IRQHandler
00002480 g     F .text	0000000a xTaskGetTickCount
00000e0c  w      .text	00000000 RTC_IRQHandler
20003830 g       .bss	00000000 _ebss
0000186a g     F .text	0000003c USART_GetITStatus
00000e0c  w      .text	00000000 DMA1_Channel7_IRQHandler
00000e0c  w      .text	00000000 CAN1_RX1_IRQHandler
00002e6c g     F .text	00000032 Delay_Init
00000e0c  w      .text	00000000 DVP_IRQHandler
00000e0c  w      .text	00000000 UART5_IRQHandler
00004020 g     F .text	00000084 _putc_r
00002954 g     F .text	000000ea xTaskRemoveFromEventList
00000e0c  w      .text	00000000 TIM4_IRQHandler
000004ee g     F .text	00000028 .hidden __riscv_save_9
00000e0c  w      .text	00000000 DMA2_Channel1_IRQHandler
000044d8 g     O .text	00000020 __sf_fake_stderr
000004fc g     F .text	0000001a .hidden __riscv_save_4
00000e0c  w      .text	00000000 I2C1_EV_IRQHandler
20000098 g     O .data	00000004 xISRStackTop
00001594 g     F .text	00000176 RCC_GetClocksFreq
00000e0c  w      .text	00000000 DMA1_Channel6_IRQHandler
000039aa g     F .text	00000040 __sfputs_r
00000e0c  w      .text	00000000 UART4_IRQHandler
00000e0c  w      .text	00000000 DMA2_Channel4_IRQHandler
0000427c g     F .text	00000018 memchr
00001764 g     F .text	0000008e USART_Init
00002a54 g     F .text	000000c4 xTaskCheckForTimeOut
000037ea g     F .text	000000b0 _free_r
00000e0c  w      .text	00000000 TIM3_IRQHandler
00000e0c  w      .text	00000000 RCC_IRQHandler
00000516 g     F .text	0000000c .hidden __riscv_save_3
00000e0c  w      .text	00000000 TIM1_TRG_COM_IRQHandler
00000ea0 g     F .text	000000e8 CAN_Init
00000870 g     F .text	0000009a DMA_INIT
00000e0c  w      .text	00000000 DMA1_Channel1_IRQHandler
00000000 g       .init	00000000 _start
00000e0c  w      .text	00000000 DMA2_Channel7_IRQHandler
00002470 g     F .text	00000010 vTaskSuspendAll
20000000 g     O .data	00000010 AHBPrescTable
000042fc g     F .text	00000010 _lseek
00001cc6 g     F .text	00000020 uxListRemove
00000e0c  w      .text	00000000 EXTI15_10_IRQHandler
00001808 g     F .text	00000036 USART_ITConfig
000027fc g     F .text	0000009a vTaskSwitchContext
000028de g     F .text	00000076 vTaskPlaceOnEventListRestricted
00000e0c  w      .text	00000000 TIM7_IRQHandler
000041b6 g     F .text	00000030 _close_r
00000e0c  w      .text	00000000 CAN2_TX_IRQHandler
20000000 g       .dalign	00000000 _data_vma
000007d0 g     F .text	000000a0 USARTx_CFG
00000e0c  w      .text	00000000 TIM5_IRQHandler
00003250 g     F .text	000000fc __swsetup_r
00000e0c  w      .text	00000000 EXTI9_5_IRQHandler
000035fc g     F .text	0000009c __sfp
000004ee g     F .text	00000028 .hidden __riscv_save_10
000040d6 g     F .text	0000002c __sread
00000e0c  w      .text	00000000 ETH_WKUP_IRQHandler
00004294 g     F .text	00000002 __malloc_lock
00000530 g     F .text	00000016 .hidden __riscv_restore_4
00000526 g     F .text	00000020 .hidden __riscv_restore_8
0000347c g     F .text	00000064 _fflush_r
000004fc g     F .text	0000001a .hidden __riscv_save_6
00000e0c  w      .text	00000000 SPI2_IRQHandler
000005ee g     F .text	000000cc CAN_Mode_Init
000044f8 g     O .text	00000020 __sf_fake_stdin
00000546 g     F .text	000000a8 memset
00000526 g     F .text	00000020 .hidden __riscv_restore_9
00000530 g     F .text	00000016 .hidden __riscv_restore_7
00000b32 g     F .text	000000b4 main
00000e0c  w      .text	00000000 TIM10_BRK_IRQHandler
00000e0c  w      .text	00000000 TIM9_CC_IRQHandler
00001c98 g     F .text	0000002e vListInsert
0000417a g     F .text	00000006 __sclose
00000e0c  w      .text	00000000 DMA2_Channel5_IRQHandler
00002e10 g     F .text	0000005c xTimerCreateTimerTask
0000389a g     F .text	000000e8 _malloc_r
000009da g     F .text	0000006c DMA1_Channel5_IRQHandler
00000e0c  w      .text	00000000 EXTI4_IRQHandler
00002e9e g     F .text	0000003a Delay_Ms
00001e52 g     F .text	0000006a xQueueGenericCreate
00000e0c  w      .text	00000000 USB_LP_CAN1_RX0_IRQHandler
000006ba g     F .text	0000007c CAN_Send_Msg
00000be6 g     F .text	000000f8 SystemInit
00000e0c  w      .text	00000000 RNG_IRQHandler
0000304c g     F .text	00000040 iprintf
00002634 g     F .text	00000166 xTaskResumeAll
2000008c g     O .data	00000004 uxTopUsedPriority
00000e0c  w      .text	00000000 USB_HP_CAN1_TX_IRQHandler
000023e0 g     F .text	00000090 vTaskStartScheduler
00000000 g       .init	00000000 _sinit
00004180 g     F .text	00000036 _write_r
00000300 g       .text	00000000 xPortStartFirstTask
00000e0c  w      .text	00000000 DMA1_Channel3_IRQHandler
00000e0c  w      .text	00000000 ETH_IRQHandler
00003c72 g     F .text	0000010c _printf_common
20000094 g     O .data	00000004 _impure_ptr
00000e0c  w      .text	00000000 TIM1_UP_IRQHandler
0000334c g     F .text	00000130 __sflush_r
00000e0c  w      .text	00000000 WWDG_IRQHandler
00000e0c  w      .text	00000000 USBHSWakeup_IRQHandler
00000e0c  w      .text	00000000 DMA2_Channel11_IRQHandler
00000e0c  w      .text	00000000 Ecall_U_Mode_Handler
00002b18 g     F .text	0000000c vTaskMissedYield
00001356 g     F .text	00000012 DMA_ITConfig
00000e0c  w      .text	00000000 DMA2_Channel6_IRQHandler
00000e0c  w      .text	00000000 TIM2_IRQHandler
20010000 g       .stack	00000000 _eusrstack
00000516 g     F .text	0000000c .hidden __riscv_save_2
00000200 g       .text	00000000 SW_Handler
00002002 g     F .text	0000006c vQueueAddToRegistry
0000248a g     F .text	000001aa xTaskIncrementTick
00000e0c  w      .text	00000000 TIM1_BRK_IRQHandler
00003702 g     F .text	00000058 __swhatbuf_r
00001850 g     F .text	00000008 USART_SendData
00000e0c  w      .text	00000000 DMA2_Channel10_IRQHandler
00000e0c  w      .text	00000000 EXTI1_IRQHandler
000004fc g     F .text	0000001a .hidden __riscv_save_5
00001d96 g     F .text	000000bc xQueueGenericReset
00002f32 g     F .text	0000003e _write
200000a0 g       .data	00000000 _edata
20003830 g       .bss	00000000 _end
00000e0c  w      .text	00000000 RTCAlarm_IRQHandler
000021dc g     F .text	00000204 xTaskCreate
00004574 g       .dlalign	00000000 _data_lma
00000e0c  w      .text	00000000 TIM10_UP_IRQHandler
00000e0c  w      .text	00000000 TIM9_TRG_COM_IRQHandler
00000e0c  w      .text	00000000 UART7_IRQHandler
00000e0c  w      .text	00000000 USART2_IRQHandler
00000e0c  w      .text	00000000 UART6_IRQHandler
00004102 g     F .text	00000048 __swrite
000039ea g     F .text	00000288 _vfiprintf_r
00003698 g     F .text	0000006a _fwalk_reent
00000cde g     F .text	0000012e SystemCoreClockUpdate
200000a0 g     O .bss	00000004 CAN_Task_Handler
00000a58 g     F .text	00000044 UART_task
00000e0c  w      .text	00000000 I2C2_ER_IRQHandler
0000279a g     F .text	00000062 vTaskDelay
00000e0c  w      .text	00000000 DMA1_Channel2_IRQHandler
00004518 g     O .text	00000020 __sf_fake_stdout
00000522 g     F .text	00000024 .hidden __riscv_restore_12
00000e0c  w      .text	00000000 TIM8_BRK_IRQHandler
00002b24 g     F .text	0000001c xTaskGetSchedulerState
0000136c g     F .text	0000002c DMA_ClearFlag
0000430c g     F .text	00000010 _read
00000e0e  w      .text	00000000 handle_reset
00000e0c  w      .text	00000000 CAN1_SCE_IRQHandler
00000e0c  w      .text	00000000 FLASH_IRQHandler
00000516 g     F .text	0000000c .hidden __riscv_save_0
00000948 g     F .text	00000092 USART1_IRQHandler
0000375a g     F .text	00000090 __smakebuf_r
00000400 g       .text	00000000 pxPortInitialiseStack
00003d7e g     F .text	000002a2 _printf_i
00000e0c  w      .text	00000000 SPI3_IRQHandler
20000124 g     O .bss	00000004 __malloc_sbrk_start
00000e0c  w      .text	00000000 I2C1_ER_IRQHandler
00001538 g     F .text	0000000a NVIC_PriorityGroupConfig
00001c26 g     F .text	00000016 vPortEnterCritical
0000119e g     F .text	0000016c DMA_DeInit
20000120 g     O .bss	00000004 __malloc_free_list
0000053a g     F .text	0000000c .hidden __riscv_restore_1
000039ea g     F .text	00000288 _vfprintf_r
0000183e g     F .text	00000012 USART_DMACmd
00001076 g     F .text	000000bc CAN_Transmit
2000022c g     O .bss	00000406 ring_buffer
00000e0c  w      .text	00000000 USBWakeUp_IRQHandler
00000a9c g     F .text	00000096 CAN_task
000042cc g     F .text	00000010 _close
00000e0c  w      .text	00000000 DMA2_Channel3_IRQHandler



Disassembly of section .init:

00000000 <_sinit>:
   0:	60f0006f          	j	e0e <handle_reset>

Disassembly of section .vector:

00000004 <_vector_base>:
	...
   c:	0a46                	slli	s4,s4,0x11
   e:	0000                	unimp
  10:	0a48                	addi	a0,sp,276
  12:	0000                	unimp
  14:	0000                	unimp
  16:	0000                	unimp
  18:	0e0c                	addi	a1,sp,784
	...
  22:	0000                	unimp
  24:	0e0c                	addi	a1,sp,784
  26:	0000                	unimp
  28:	0e0c                	addi	a1,sp,784
	...
  32:	0000                	unimp
  34:	1bee                	slli	s7,s7,0x3b
  36:	0000                	unimp
  38:	0000                	unimp
  3a:	0000                	unimp
  3c:	0200                	addi	s0,sp,256
  3e:	0000                	unimp
  40:	0000                	unimp
  42:	0000                	unimp
  44:	0e0c                	addi	a1,sp,784
  46:	0000                	unimp
  48:	0e0c                	addi	a1,sp,784
  4a:	0000                	unimp
  4c:	0e0c                	addi	a1,sp,784
  4e:	0000                	unimp
  50:	0e0c                	addi	a1,sp,784
  52:	0000                	unimp
  54:	0e0c                	addi	a1,sp,784
  56:	0000                	unimp
  58:	0e0c                	addi	a1,sp,784
  5a:	0000                	unimp
  5c:	0e0c                	addi	a1,sp,784
  5e:	0000                	unimp
  60:	0e0c                	addi	a1,sp,784
  62:	0000                	unimp
  64:	0e0c                	addi	a1,sp,784
  66:	0000                	unimp
  68:	0e0c                	addi	a1,sp,784
  6a:	0000                	unimp
  6c:	0e0c                	addi	a1,sp,784
  6e:	0000                	unimp
  70:	0e0c                	addi	a1,sp,784
  72:	0000                	unimp
  74:	0e0c                	addi	a1,sp,784
  76:	0000                	unimp
  78:	0e0c                	addi	a1,sp,784
  7a:	0000                	unimp
  7c:	0e0c                	addi	a1,sp,784
  7e:	0000                	unimp
  80:	09da                	slli	s3,s3,0x16
  82:	0000                	unimp
  84:	0e0c                	addi	a1,sp,784
  86:	0000                	unimp
  88:	0e0c                	addi	a1,sp,784
  8a:	0000                	unimp
  8c:	0e0c                	addi	a1,sp,784
  8e:	0000                	unimp
  90:	0e0c                	addi	a1,sp,784
  92:	0000                	unimp
  94:	0e0c                	addi	a1,sp,784
  96:	0000                	unimp
  98:	0e0c                	addi	a1,sp,784
  9a:	0000                	unimp
  9c:	0e0c                	addi	a1,sp,784
  9e:	0000                	unimp
  a0:	0e0c                	addi	a1,sp,784
  a2:	0000                	unimp
  a4:	0e0c                	addi	a1,sp,784
  a6:	0000                	unimp
  a8:	0e0c                	addi	a1,sp,784
  aa:	0000                	unimp
  ac:	0e0c                	addi	a1,sp,784
  ae:	0000                	unimp
  b0:	0e0c                	addi	a1,sp,784
  b2:	0000                	unimp
  b4:	0e0c                	addi	a1,sp,784
  b6:	0000                	unimp
  b8:	0e0c                	addi	a1,sp,784
  ba:	0000                	unimp
  bc:	0e0c                	addi	a1,sp,784
  be:	0000                	unimp
  c0:	0e0c                	addi	a1,sp,784
  c2:	0000                	unimp
  c4:	0e0c                	addi	a1,sp,784
  c6:	0000                	unimp
  c8:	0e0c                	addi	a1,sp,784
  ca:	0000                	unimp
  cc:	0e0c                	addi	a1,sp,784
  ce:	0000                	unimp
  d0:	0e0c                	addi	a1,sp,784
  d2:	0000                	unimp
  d4:	0e0c                	addi	a1,sp,784
  d6:	0000                	unimp
  d8:	0948                	addi	a0,sp,148
  da:	0000                	unimp
  dc:	0e0c                	addi	a1,sp,784
  de:	0000                	unimp
  e0:	0e0c                	addi	a1,sp,784
  e2:	0000                	unimp
  e4:	0e0c                	addi	a1,sp,784
  e6:	0000                	unimp
  e8:	0e0c                	addi	a1,sp,784
  ea:	0000                	unimp
  ec:	0e0c                	addi	a1,sp,784
  ee:	0000                	unimp
  f0:	0e0c                	addi	a1,sp,784
  f2:	0000                	unimp
  f4:	0e0c                	addi	a1,sp,784
  f6:	0000                	unimp
  f8:	0e0c                	addi	a1,sp,784
  fa:	0000                	unimp
  fc:	0e0c                	addi	a1,sp,784
  fe:	0000                	unimp
 100:	0e0c                	addi	a1,sp,784
 102:	0000                	unimp
 104:	0000                	unimp
 106:	0000                	unimp
 108:	0e0c                	addi	a1,sp,784
 10a:	0000                	unimp
 10c:	0e0c                	addi	a1,sp,784
 10e:	0000                	unimp
 110:	0e0c                	addi	a1,sp,784
 112:	0000                	unimp
 114:	0e0c                	addi	a1,sp,784
 116:	0000                	unimp
 118:	0e0c                	addi	a1,sp,784
 11a:	0000                	unimp
 11c:	0e0c                	addi	a1,sp,784
 11e:	0000                	unimp
 120:	0e0c                	addi	a1,sp,784
 122:	0000                	unimp
 124:	0e0c                	addi	a1,sp,784
 126:	0000                	unimp
 128:	0e0c                	addi	a1,sp,784
 12a:	0000                	unimp
 12c:	0e0c                	addi	a1,sp,784
 12e:	0000                	unimp
 130:	0e0c                	addi	a1,sp,784
 132:	0000                	unimp
 134:	0e0c                	addi	a1,sp,784
 136:	0000                	unimp
 138:	0e0c                	addi	a1,sp,784
 13a:	0000                	unimp
 13c:	0e0c                	addi	a1,sp,784
 13e:	0000                	unimp
 140:	0e0c                	addi	a1,sp,784
 142:	0000                	unimp
 144:	0e0c                	addi	a1,sp,784
 146:	0000                	unimp
 148:	0e0c                	addi	a1,sp,784
 14a:	0000                	unimp
 14c:	0e0c                	addi	a1,sp,784
 14e:	0000                	unimp
 150:	0e0c                	addi	a1,sp,784
 152:	0000                	unimp
 154:	0e0c                	addi	a1,sp,784
 156:	0000                	unimp
 158:	0e0c                	addi	a1,sp,784
 15a:	0000                	unimp
 15c:	0e0c                	addi	a1,sp,784
 15e:	0000                	unimp
 160:	0e0c                	addi	a1,sp,784
 162:	0000                	unimp
 164:	0e0c                	addi	a1,sp,784
 166:	0000                	unimp
 168:	0e0c                	addi	a1,sp,784
 16a:	0000                	unimp
 16c:	0e0c                	addi	a1,sp,784
 16e:	0000                	unimp
 170:	0e0c                	addi	a1,sp,784
 172:	0000                	unimp
 174:	0e0c                	addi	a1,sp,784
 176:	0000                	unimp
 178:	0e0c                	addi	a1,sp,784
 17a:	0000                	unimp
 17c:	0e0c                	addi	a1,sp,784
 17e:	0000                	unimp
 180:	0e0c                	addi	a1,sp,784
 182:	0000                	unimp
 184:	0e0c                	addi	a1,sp,784
 186:	0000                	unimp
 188:	0e0c                	addi	a1,sp,784
 18a:	0000                	unimp
 18c:	0e0c                	addi	a1,sp,784
 18e:	0000                	unimp
 190:	0e0c                	addi	a1,sp,784
 192:	0000                	unimp
 194:	0e0c                	addi	a1,sp,784
 196:	0000                	unimp
 198:	0e0c                	addi	a1,sp,784
 19a:	0000                	unimp
 19c:	0e0c                	addi	a1,sp,784
 19e:	0000                	unimp
 1a0:	0e0c                	addi	a1,sp,784
	...

Disassembly of section .text:

00000200 <SW_Handler>:
     200:	f8810113          	addi	sp,sp,-120
     204:	c206                	sw	ra,4(sp)
     206:	c416                	sw	t0,8(sp)
     208:	c61a                	sw	t1,12(sp)
     20a:	c81e                	sw	t2,16(sp)
     20c:	ca22                	sw	s0,20(sp)
     20e:	cc26                	sw	s1,24(sp)
     210:	ce2a                	sw	a0,28(sp)
     212:	d02e                	sw	a1,32(sp)
     214:	d232                	sw	a2,36(sp)
     216:	d436                	sw	a3,40(sp)
     218:	d63a                	sw	a4,44(sp)
     21a:	d83e                	sw	a5,48(sp)
     21c:	da42                	sw	a6,52(sp)
     21e:	dc46                	sw	a7,56(sp)
     220:	de4a                	sw	s2,60(sp)
     222:	c0ce                	sw	s3,64(sp)
     224:	c2d2                	sw	s4,68(sp)
     226:	c4d6                	sw	s5,72(sp)
     228:	c6da                	sw	s6,76(sp)
     22a:	c8de                	sw	s7,80(sp)
     22c:	cae2                	sw	s8,84(sp)
     22e:	cce6                	sw	s9,88(sp)
     230:	ceea                	sw	s10,92(sp)
     232:	d0ee                	sw	s11,96(sp)
     234:	d2f2                	sw	t3,100(sp)
     236:	d4f6                	sw	t4,104(sp)
     238:	d6fa                	sw	t5,108(sp)
     23a:	d8fe                	sw	t6,112(sp)
     23c:	300022f3          	csrr	t0,mstatus
     240:	da96                	sw	t0,116(sp)
     242:	20000297          	auipc	t0,0x20000
     246:	e8a2a283          	lw	t0,-374(t0) # 200000cc <pxCurrentTCB>
     24a:	0022a023          	sw	sp,0(t0)
     24e:	341025f3          	csrr	a1,mepc
     252:	c02e                	sw	a1,0(sp)
     254:	02000593          	li	a1,32
     258:	8045a073          	csrs	0x804,a1
     25c:	8181a103          	lw	sp,-2024(gp) # 20000098 <xISRStackTop>
     260:	59c020ef          	jal	ra,27fc <vTaskSwitchContext>

00000264 <processed_source>:
     264:	20000317          	auipc	t1,0x20000
     268:	e6832303          	lw	t1,-408(t1) # 200000cc <pxCurrentTCB>
     26c:	00032103          	lw	sp,0(t1)
     270:	4282                	lw	t0,0(sp)
     272:	34129073          	csrw	mepc,t0
     276:	52d6                	lw	t0,116(sp)
     278:	30029073          	csrw	mstatus,t0
     27c:	4092                	lw	ra,4(sp)
     27e:	42a2                	lw	t0,8(sp)
     280:	4332                	lw	t1,12(sp)
     282:	43c2                	lw	t2,16(sp)
     284:	4452                	lw	s0,20(sp)
     286:	44e2                	lw	s1,24(sp)
     288:	4572                	lw	a0,28(sp)
     28a:	5582                	lw	a1,32(sp)
     28c:	5612                	lw	a2,36(sp)
     28e:	56a2                	lw	a3,40(sp)
     290:	5732                	lw	a4,44(sp)
     292:	57c2                	lw	a5,48(sp)
     294:	5852                	lw	a6,52(sp)
     296:	58e2                	lw	a7,56(sp)
     298:	5972                	lw	s2,60(sp)
     29a:	4986                	lw	s3,64(sp)
     29c:	4a16                	lw	s4,68(sp)
     29e:	4aa6                	lw	s5,72(sp)
     2a0:	4b36                	lw	s6,76(sp)
     2a2:	4bc6                	lw	s7,80(sp)
     2a4:	4c56                	lw	s8,84(sp)
     2a6:	4ce6                	lw	s9,88(sp)
     2a8:	4d76                	lw	s10,92(sp)
     2aa:	5d86                	lw	s11,96(sp)
     2ac:	5e16                	lw	t3,100(sp)
     2ae:	5ea6                	lw	t4,104(sp)
     2b0:	5f36                	lw	t5,108(sp)
     2b2:	5fc6                	lw	t6,112(sp)
     2b4:	07810113          	addi	sp,sp,120
     2b8:	30200073          	mret
     2bc:	00000013          	nop
     2c0:	00000013          	nop
     2c4:	00000013          	nop
     2c8:	00000013          	nop
     2cc:	00000013          	nop
     2d0:	00000013          	nop
     2d4:	00000013          	nop
     2d8:	00000013          	nop
     2dc:	00000013          	nop
     2e0:	00000013          	nop
     2e4:	00000013          	nop
     2e8:	00000013          	nop
     2ec:	00000013          	nop
     2f0:	00000013          	nop
     2f4:	00000013          	nop
     2f8:	00000013          	nop
     2fc:	00000013          	nop

00000300 <xPortStartFirstTask>:
     300:	8181a283          	lw	t0,-2024(gp) # 20000098 <xISRStackTop>
     304:	e0028293          	addi	t0,t0,-512
     308:	34029073          	csrw	mscratch,t0
     30c:	20000117          	auipc	sp,0x20000
     310:	dc012103          	lw	sp,-576(sp) # 200000cc <pxCurrentTCB>
     314:	4102                	lw	sp,0(sp)
     316:	4082                	lw	ra,0(sp)
     318:	4332                	lw	t1,12(sp)
     31a:	43c2                	lw	t2,16(sp)
     31c:	4452                	lw	s0,20(sp)
     31e:	44e2                	lw	s1,24(sp)
     320:	4572                	lw	a0,28(sp)
     322:	5582                	lw	a1,32(sp)
     324:	5612                	lw	a2,36(sp)
     326:	56a2                	lw	a3,40(sp)
     328:	5732                	lw	a4,44(sp)
     32a:	57c2                	lw	a5,48(sp)
     32c:	5852                	lw	a6,52(sp)
     32e:	58e2                	lw	a7,56(sp)
     330:	5972                	lw	s2,60(sp)
     332:	4986                	lw	s3,64(sp)
     334:	4a16                	lw	s4,68(sp)
     336:	4aa6                	lw	s5,72(sp)
     338:	4b36                	lw	s6,76(sp)
     33a:	4bc6                	lw	s7,80(sp)
     33c:	4c56                	lw	s8,84(sp)
     33e:	4ce6                	lw	s9,88(sp)
     340:	4d76                	lw	s10,92(sp)
     342:	5d86                	lw	s11,96(sp)
     344:	5e16                	lw	t3,100(sp)
     346:	5ea6                	lw	t4,104(sp)
     348:	5f36                	lw	t5,108(sp)
     34a:	5fc6                	lw	t6,112(sp)
     34c:	52d6                	lw	t0,116(sp)
     34e:	02a1                	addi	t0,t0,8
     350:	30029073          	csrw	mstatus,t0
     354:	42a2                	lw	t0,8(sp)
     356:	07810113          	addi	sp,sp,120
     35a:	8082                	ret
     35c:	00000013          	nop
     360:	00000013          	nop
     364:	00000013          	nop
     368:	00000013          	nop
     36c:	00000013          	nop
     370:	00000013          	nop
     374:	00000013          	nop
     378:	00000013          	nop
     37c:	00000013          	nop
     380:	00000013          	nop
     384:	00000013          	nop
     388:	00000013          	nop
     38c:	00000013          	nop
     390:	00000013          	nop
     394:	00000013          	nop
     398:	00000013          	nop
     39c:	00000013          	nop
     3a0:	00000013          	nop
     3a4:	00000013          	nop
     3a8:	00000013          	nop
     3ac:	00000013          	nop
     3b0:	00000013          	nop
     3b4:	00000013          	nop
     3b8:	00000013          	nop
     3bc:	00000013          	nop
     3c0:	00000013          	nop
     3c4:	00000013          	nop
     3c8:	00000013          	nop
     3cc:	00000013          	nop
     3d0:	00000013          	nop
     3d4:	00000013          	nop
     3d8:	00000013          	nop
     3dc:	00000013          	nop
     3e0:	00000013          	nop
     3e4:	00000013          	nop
     3e8:	00000013          	nop
     3ec:	00000013          	nop
     3f0:	00000013          	nop
     3f4:	00000013          	nop
     3f8:	00000013          	nop
     3fc:	00000013          	nop

00000400 <pxPortInitialiseStack>:
     400:	300022f3          	csrr	t0,mstatus
     404:	ff72f293          	andi	t0,t0,-9
     408:	78800313          	li	t1,1928
     40c:	0312                	slli	t1,t1,0x4
     40e:	0062e2b3          	or	t0,t0,t1
     412:	1571                	addi	a0,a0,-4
     414:	00552023          	sw	t0,0(a0)
     418:	fa850513          	addi	a0,a0,-88
     41c:	c110                	sw	a2,0(a0)
     41e:	1521                	addi	a0,a0,-24
     420:	00052023          	sw	zero,0(a0)
     424:	00000293          	li	t0,0

00000428 <chip_specific_stack_frame>:
     428:	00028763          	beqz	t0,436 <chip_specific_stack_frame+0xe>
     42c:	1571                	addi	a0,a0,-4
     42e:	00052023          	sw	zero,0(a0)
     432:	12fd                	addi	t0,t0,-1
     434:	bfd5                	j	428 <chip_specific_stack_frame>
     436:	1571                	addi	a0,a0,-4
     438:	c10c                	sw	a1,0(a0)
     43a:	8082                	ret
	...

000004e6 <__riscv_save_12>:
     4e6:	7139                	addi	sp,sp,-64
     4e8:	4301                	li	t1,0
     4ea:	c66e                	sw	s11,12(sp)
     4ec:	a019                	j	4f2 <__riscv_save_10+0x4>

000004ee <__riscv_save_10>:
     4ee:	7139                	addi	sp,sp,-64
     4f0:	5341                	li	t1,-16
     4f2:	c86a                	sw	s10,16(sp)
     4f4:	ca66                	sw	s9,20(sp)
     4f6:	cc62                	sw	s8,24(sp)
     4f8:	ce5e                	sw	s7,28(sp)
     4fa:	a019                	j	500 <__riscv_save_4+0x4>

000004fc <__riscv_save_4>:
     4fc:	7139                	addi	sp,sp,-64
     4fe:	5301                	li	t1,-32
     500:	d05a                	sw	s6,32(sp)
     502:	d256                	sw	s5,36(sp)
     504:	d452                	sw	s4,40(sp)
     506:	d64e                	sw	s3,44(sp)
     508:	d84a                	sw	s2,48(sp)
     50a:	da26                	sw	s1,52(sp)
     50c:	dc22                	sw	s0,56(sp)
     50e:	de06                	sw	ra,60(sp)
     510:	40610133          	sub	sp,sp,t1
     514:	8282                	jr	t0

00000516 <__riscv_save_0>:
     516:	1141                	addi	sp,sp,-16
     518:	c04a                	sw	s2,0(sp)
     51a:	c226                	sw	s1,4(sp)
     51c:	c422                	sw	s0,8(sp)
     51e:	c606                	sw	ra,12(sp)
     520:	8282                	jr	t0

00000522 <__riscv_restore_12>:
     522:	4db2                	lw	s11,12(sp)
     524:	0141                	addi	sp,sp,16

00000526 <__riscv_restore_10>:
     526:	4d02                	lw	s10,0(sp)
     528:	4c92                	lw	s9,4(sp)
     52a:	4c22                	lw	s8,8(sp)
     52c:	4bb2                	lw	s7,12(sp)
     52e:	0141                	addi	sp,sp,16

00000530 <__riscv_restore_4>:
     530:	4b02                	lw	s6,0(sp)
     532:	4a92                	lw	s5,4(sp)
     534:	4a22                	lw	s4,8(sp)
     536:	49b2                	lw	s3,12(sp)
     538:	0141                	addi	sp,sp,16

0000053a <__riscv_restore_0>:
     53a:	4902                	lw	s2,0(sp)
     53c:	4492                	lw	s1,4(sp)
     53e:	4422                	lw	s0,8(sp)
     540:	40b2                	lw	ra,12(sp)
     542:	0141                	addi	sp,sp,16
     544:	8082                	ret

00000546 <memset>:
     546:	433d                	li	t1,15
     548:	872a                	mv	a4,a0
     54a:	02c37363          	bgeu	t1,a2,570 <memset+0x2a>
     54e:	00f77793          	andi	a5,a4,15
     552:	efbd                	bnez	a5,5d0 <memset+0x8a>
     554:	e5ad                	bnez	a1,5be <memset+0x78>
     556:	ff067693          	andi	a3,a2,-16
     55a:	8a3d                	andi	a2,a2,15
     55c:	96ba                	add	a3,a3,a4
     55e:	c30c                	sw	a1,0(a4)
     560:	c34c                	sw	a1,4(a4)
     562:	c70c                	sw	a1,8(a4)
     564:	c74c                	sw	a1,12(a4)
     566:	0741                	addi	a4,a4,16
     568:	fed76be3          	bltu	a4,a3,55e <memset+0x18>
     56c:	e211                	bnez	a2,570 <memset+0x2a>
     56e:	8082                	ret
     570:	40c306b3          	sub	a3,t1,a2
     574:	068a                	slli	a3,a3,0x2
     576:	00000297          	auipc	t0,0x0
     57a:	9696                	add	a3,a3,t0
     57c:	00a68067          	jr	10(a3)
     580:	00b70723          	sb	a1,14(a4)
     584:	00b706a3          	sb	a1,13(a4)
     588:	00b70623          	sb	a1,12(a4)
     58c:	00b705a3          	sb	a1,11(a4)
     590:	00b70523          	sb	a1,10(a4)
     594:	00b704a3          	sb	a1,9(a4)
     598:	00b70423          	sb	a1,8(a4)
     59c:	00b703a3          	sb	a1,7(a4)
     5a0:	00b70323          	sb	a1,6(a4)
     5a4:	00b702a3          	sb	a1,5(a4)
     5a8:	00b70223          	sb	a1,4(a4)
     5ac:	00b701a3          	sb	a1,3(a4)
     5b0:	00b70123          	sb	a1,2(a4)
     5b4:	00b700a3          	sb	a1,1(a4)
     5b8:	00b70023          	sb	a1,0(a4)
     5bc:	8082                	ret
     5be:	0ff5f593          	andi	a1,a1,255
     5c2:	00859693          	slli	a3,a1,0x8
     5c6:	8dd5                	or	a1,a1,a3
     5c8:	01059693          	slli	a3,a1,0x10
     5cc:	8dd5                	or	a1,a1,a3
     5ce:	b761                	j	556 <memset+0x10>
     5d0:	00279693          	slli	a3,a5,0x2
     5d4:	00000297          	auipc	t0,0x0
     5d8:	9696                	add	a3,a3,t0
     5da:	8286                	mv	t0,ra
     5dc:	fa8680e7          	jalr	-88(a3)
     5e0:	8096                	mv	ra,t0
     5e2:	17c1                	addi	a5,a5,-16
     5e4:	8f1d                	sub	a4,a4,a5
     5e6:	963e                	add	a2,a2,a5
     5e8:	f8c374e3          	bgeu	t1,a2,570 <memset+0x2a>
     5ec:	b7a5                	j	554 <memset+0xe>

000005ee <CAN_Mode_Init>:
     5ee:	f0fff2ef          	jal	t0,4fc <__riscv_save_4>
     5f2:	715d                	addi	sp,sp,-80
     5f4:	8a2a                	mv	s4,a0
     5f6:	892e                	mv	s2,a1
     5f8:	89b2                	mv	s3,a2
     5fa:	4581                	li	a1,0
     5fc:	02000613          	li	a2,32
     600:	1808                	addi	a0,sp,48
     602:	c636                	sw	a3,12(sp)
     604:	c43a                	sw	a4,8(sp)
     606:	c802                	sw	zero,16(sp)
     608:	ca02                	sw	zero,20(sp)
     60a:	cc02                	sw	zero,24(sp)
     60c:	3f2d                	jal	546 <memset>
     60e:	4585                	li	a1,1
     610:	4515                	li	a0,5
     612:	ce02                	sw	zero,28(sp)
     614:	d002                	sw	zero,32(sp)
     616:	d202                	sw	zero,36(sp)
     618:	d402                	sw	zero,40(sp)
     61a:	d602                	sw	zero,44(sp)
     61c:	10c010ef          	jal	ra,1728 <RCC_APB2PeriphClockCmd>
     620:	4585                	li	a1,1
     622:	02000537          	lui	a0,0x2000
     626:	120010ef          	jal	ra,1746 <RCC_APB1PeriphClockCmd>
     62a:	4585                	li	a1,1
     62c:	001d4537          	lui	a0,0x1d4
     630:	633000ef          	jal	ra,1462 <GPIO_PinRemapConfig>
     634:	400114b7          	lui	s1,0x40011
     638:	47e1                	li	a5,24
     63a:	cc3e                	sw	a5,24(sp)
     63c:	080c                	addi	a1,sp,16
     63e:	478d                	li	a5,3
     640:	80048513          	addi	a0,s1,-2048 # 40010800 <__freertos_irq_stack_top+0x20000800>
     644:	6405                	lui	s0,0x1
     646:	80e0                	sh	s0,16(sp)
     648:	ca3e                	sw	a5,20(sp)
     64a:	559000ef          	jal	ra,13a2 <GPIO_Init>
     64e:	04800793          	li	a5,72
     652:	080c                	addi	a1,sp,16
     654:	80048513          	addi	a0,s1,-2048
     658:	80040413          	addi	s0,s0,-2048 # 800 <__stack_size>
     65c:	cc3e                	sw	a5,24(sp)
     65e:	80e0                	sh	s0,16(sp)
     660:	543000ef          	jal	ra,13a2 <GPIO_Init>
     664:	4722                	lw	a4,8(sp)
     666:	46b2                	lw	a3,12(sp)
     668:	40006537          	lui	a0,0x40006
     66c:	4405                	li	s0,1
     66e:	180c                	addi	a1,sp,48
     670:	40050513          	addi	a0,a0,1024 # 40006400 <__freertos_irq_stack_top+0x1fff6400>
     674:	02e10923          	sb	a4,50(sp)
     678:	02d11823          	sh	a3,48(sp)
     67c:	c2a2                	sw	s0,68(sp)
     67e:	034109a3          	sb	s4,51(sp)
     682:	03310a23          	sb	s3,52(sp)
     686:	03210aa3          	sb	s2,53(sp)
     68a:	dc02                	sw	zero,56(sp)
     68c:	de02                	sw	zero,60(sp)
     68e:	c082                	sw	zero,64(sp)
     690:	c482                	sw	zero,72(sp)
     692:	c682                	sw	zero,76(sp)
     694:	00d000ef          	jal	ra,ea0 <CAN_Init>
     698:	6799                	lui	a5,0x6
     69a:	2e078793          	addi	a5,a5,736 # 62e0 <_data_lma+0x1d6c>
     69e:	ce3e                	sw	a5,28(sp)
     6a0:	000707b7          	lui	a5,0x70
     6a4:	1781                	addi	a5,a5,-32
     6a6:	0868                	addi	a0,sp,28
     6a8:	d03e                	sw	a5,32(sp)
     6aa:	02810423          	sb	s0,40(sp)
     6ae:	d622                	sw	s0,44(sp)
     6b0:	d202                	sw	zero,36(sp)
     6b2:	0d7000ef          	jal	ra,f88 <CAN_FilterInit>
     6b6:	6161                	addi	sp,sp,80
     6b8:	bda5                	j	530 <__riscv_restore_4>

000006ba <CAN_Send_Msg>:
     6ba:	e43ff2ef          	jal	t0,4fc <__riscv_save_4>
     6be:	1101                	addi	sp,sp,-32
     6c0:	87ae                	mv	a5,a1
     6c2:	31700713          	li	a4,791
     6c6:	0074                	addi	a3,sp,12
     6c8:	07c2                	slli	a5,a5,0x10
     6ca:	c63a                	sw	a4,12(sp)
     6cc:	00b10b23          	sb	a1,22(sp)
     6d0:	00011a23          	sh	zero,20(sp)
     6d4:	4701                	li	a4,0
     6d6:	85b6                	mv	a1,a3
     6d8:	83c1                	srli	a5,a5,0x10
     6da:	01071613          	slli	a2,a4,0x10
     6de:	8241                	srli	a2,a2,0x10
     6e0:	0685                	addi	a3,a3,1
     6e2:	02f66a63          	bltu	a2,a5,716 <CAN_Send_Msg+0x5c>
     6e6:	400064b7          	lui	s1,0x40006
     6ea:	40048513          	addi	a0,s1,1024 # 40006400 <__freertos_irq_stack_top+0x1fff6400>
     6ee:	189000ef          	jal	ra,1076 <CAN_Transmit>
     6f2:	6905                	lui	s2,0x1
     6f4:	89aa                	mv	s3,a0
     6f6:	4401                	li	s0,0
     6f8:	40048493          	addi	s1,s1,1024
     6fc:	4a05                	li	s4,1
     6fe:	197d                	addi	s2,s2,-1
     700:	85ce                	mv	a1,s3
     702:	8526                	mv	a0,s1
     704:	22f000ef          	jal	ra,1132 <CAN_TransmitStatus>
     708:	03450163          	beq	a0,s4,72a <CAN_Send_Msg+0x70>
     70c:	01241b63          	bne	s0,s2,722 <CAN_Send_Msg+0x68>
     710:	4505                	li	a0,1
     712:	6105                	addi	sp,sp,32
     714:	bd31                	j	530 <__riscv_restore_4>
     716:	00e50633          	add	a2,a0,a4
     71a:	2210                	lbu	a2,0(a2)
     71c:	0705                	addi	a4,a4,1
     71e:	a6b0                	sb	a2,10(a3)
     720:	bf6d                	j	6da <CAN_Send_Msg+0x20>
     722:	0405                	addi	s0,s0,1
     724:	0442                	slli	s0,s0,0x10
     726:	8041                	srli	s0,s0,0x10
     728:	bfe1                	j	700 <CAN_Send_Msg+0x46>
     72a:	757d                	lui	a0,0xfffff
     72c:	0505                	addi	a0,a0,1
     72e:	9522                	add	a0,a0,s0
     730:	00153513          	seqz	a0,a0
     734:	bff9                	j	712 <CAN_Send_Msg+0x58>

00000736 <ring_buffer_push_huge>:
     736:	dc7ff2ef          	jal	t0,4fc <__riscv_save_4>
     73a:	9ac18793          	addi	a5,gp,-1620 # 2000022c <ring_buffer>
     73e:	4047d703          	lhu	a4,1028(a5) # 70404 <_data_lma+0x6be90>
     742:	40000793          	li	a5,1024
     746:	8aaa                	mv	s5,a0
     748:	8f99                	sub	a5,a5,a4
     74a:	843e                	mv	s0,a5
     74c:	07c2                	slli	a5,a5,0x10
     74e:	83c1                	srli	a5,a5,0x10
     750:	9ac18913          	addi	s2,gp,-1620 # 2000022c <ring_buffer>
     754:	00f5f363          	bgeu	a1,a5,75a <ring_buffer_push_huge+0x24>
     758:	842e                	mv	s0,a1
     75a:	40095483          	lhu	s1,1024(s2) # 1400 <GPIO_Init+0x5e>
     75e:	40000993          	li	s3,1024
     762:	0442                	slli	s0,s0,0x10
     764:	04c2                	slli	s1,s1,0x10
     766:	80c1                	srli	s1,s1,0x10
     768:	409989b3          	sub	s3,s3,s1
     76c:	09c2                	slli	s3,s3,0x10
     76e:	8041                	srli	s0,s0,0x10
     770:	0109d993          	srli	s3,s3,0x10
     774:	0289e863          	bltu	s3,s0,7a4 <ring_buffer_push_huge+0x6e>
     778:	40095503          	lhu	a0,1024(s2)
     77c:	8622                	mv	a2,s0
     77e:	85d6                	mv	a1,s5
     780:	954a                	add	a0,a0,s2
     782:	019020ef          	jal	ra,2f9a <memcpy>
     786:	40095783          	lhu	a5,1024(s2)
     78a:	97a2                	add	a5,a5,s0
     78c:	07c2                	slli	a5,a5,0x10
     78e:	83c1                	srli	a5,a5,0x10
     790:	40f91023          	sh	a5,1024(s2)
     794:	40495783          	lhu	a5,1028(s2)
     798:	943e                	add	s0,s0,a5
     79a:	0442                	slli	s0,s0,0x10
     79c:	8041                	srli	s0,s0,0x10
     79e:	40891223          	sh	s0,1028(s2)
     7a2:	b379                	j	530 <__riscv_restore_4>
     7a4:	40095503          	lhu	a0,1024(s2)
     7a8:	c0048493          	addi	s1,s1,-1024
     7ac:	94a2                	add	s1,s1,s0
     7ae:	864e                	mv	a2,s3
     7b0:	85d6                	mv	a1,s5
     7b2:	04c2                	slli	s1,s1,0x10
     7b4:	954a                	add	a0,a0,s2
     7b6:	7e4020ef          	jal	ra,2f9a <memcpy>
     7ba:	80c1                	srli	s1,s1,0x10
     7bc:	8626                	mv	a2,s1
     7be:	013a85b3          	add	a1,s5,s3
     7c2:	9ac18513          	addi	a0,gp,-1620 # 2000022c <ring_buffer>
     7c6:	7d4020ef          	jal	ra,2f9a <memcpy>
     7ca:	40991023          	sh	s1,1024(s2)
     7ce:	b7d9                	j	794 <ring_buffer_push_huge+0x5e>

000007d0 <USARTx_CFG>:
     7d0:	d47ff2ef          	jal	t0,516 <__riscv_save_0>
     7d4:	84aa                	mv	s1,a0
     7d6:	6511                	lui	a0,0x4
     7d8:	7179                	addi	sp,sp,-48
     7da:	4585                	li	a1,1
     7dc:	0531                	addi	a0,a0,12
     7de:	ca02                	sw	zero,20(sp)
     7e0:	cc02                	sw	zero,24(sp)
     7e2:	ce02                	sw	zero,28(sp)
     7e4:	d002                	sw	zero,32(sp)
     7e6:	d202                	sw	zero,36(sp)
     7e8:	d402                	sw	zero,40(sp)
     7ea:	d602                	sw	zero,44(sp)
     7ec:	c602                	sw	zero,12(sp)
     7ee:	c802                	sw	zero,16(sp)
     7f0:	739000ef          	jal	ra,1728 <RCC_APB2PeriphClockCmd>
     7f4:	20000793          	li	a5,512
     7f8:	82fc                	sh	a5,20(sp)
     7fa:	40011437          	lui	s0,0x40011
     7fe:	478d                	li	a5,3
     800:	cc3e                	sw	a5,24(sp)
     802:	084c                	addi	a1,sp,20
     804:	47e1                	li	a5,24
     806:	80040513          	addi	a0,s0,-2048 # 40010800 <__freertos_irq_stack_top+0x20000800>
     80a:	ce3e                	sw	a5,28(sp)
     80c:	397000ef          	jal	ra,13a2 <GPIO_Init>
     810:	40000793          	li	a5,1024
     814:	82fc                	sh	a5,20(sp)
     816:	084c                	addi	a1,sp,20
     818:	4791                	li	a5,4
     81a:	80040513          	addi	a0,s0,-2048
     81e:	ce3e                	sw	a5,28(sp)
     820:	40014437          	lui	s0,0x40014
     824:	37f000ef          	jal	ra,13a2 <GPIO_Init>
     828:	000c07b7          	lui	a5,0xc0
     82c:	100c                	addi	a1,sp,32
     82e:	80040513          	addi	a0,s0,-2048 # 40013800 <__freertos_irq_stack_top+0x20003800>
     832:	d43e                	sw	a5,40(sp)
     834:	d026                	sw	s1,32(sp)
     836:	d202                	sw	zero,36(sp)
     838:	02011623          	sh	zero,44(sp)
     83c:	729000ef          	jal	ra,1764 <USART_Init>
     840:	4605                	li	a2,1
     842:	42400593          	li	a1,1060
     846:	80040513          	addi	a0,s0,-2048
     84a:	7bf000ef          	jal	ra,1808 <USART_ITConfig>
     84e:	13500793          	li	a5,309
     852:	867c                	sh	a5,12(sp)
     854:	4785                	li	a5,1
     856:	875c                	sb	a5,14(sp)
     858:	0068                	addi	a0,sp,12
     85a:	4785                	li	a5,1
     85c:	c83e                	sw	a5,16(sp)
     85e:	4e5000ef          	jal	ra,1542 <NVIC_Init>
     862:	4585                	li	a1,1
     864:	80040513          	addi	a0,s0,-2048
     868:	78b000ef          	jal	ra,17f2 <USART_Cmd>
     86c:	6145                	addi	sp,sp,48
     86e:	b1f1                	j	53a <__riscv_restore_0>

00000870 <DMA_INIT>:
     870:	ca7ff2ef          	jal	t0,516 <__riscv_save_0>
     874:	7139                	addi	sp,sp,-64
     876:	02c00613          	li	a2,44
     87a:	4581                	li	a1,0
     87c:	0848                	addi	a0,sp,20
     87e:	31e1                	jal	546 <memset>
     880:	4585                	li	a1,1
     882:	4505                	li	a0,1
     884:	40020437          	lui	s0,0x40020
     888:	c602                	sw	zero,12(sp)
     88a:	c802                	sw	zero,16(sp)
     88c:	67f000ef          	jal	ra,170a <RCC_AHBPeriphClockCmd>
     890:	05840513          	addi	a0,s0,88 # 40020058 <__freertos_irq_stack_top+0x20010058>
     894:	10b000ef          	jal	ra,119e <DMA_DeInit>
     898:	400144b7          	lui	s1,0x40014
     89c:	678d                	lui	a5,0x3
     89e:	dc3e                	sw	a5,56(sp)
     8a0:	80448793          	addi	a5,s1,-2044 # 40013804 <__freertos_irq_stack_top+0x20003804>
     8a4:	ca3e                	sw	a5,20(sp)
     8a6:	200007b7          	lui	a5,0x20000
     8aa:	08000713          	li	a4,128
     8ae:	12978793          	addi	a5,a5,297 # 20000129 <USART1_DMA_CTRL+0x1>
     8b2:	084c                	addi	a1,sp,20
     8b4:	05840513          	addi	a0,s0,88
     8b8:	d43a                	sw	a4,40(sp)
     8ba:	d03a                	sw	a4,32(sp)
     8bc:	cc3e                	sw	a5,24(sp)
     8be:	d202                	sw	zero,36(sp)
     8c0:	d602                	sw	zero,44(sp)
     8c2:	d802                	sw	zero,48(sp)
     8c4:	da02                	sw	zero,52(sp)
     8c6:	de02                	sw	zero,60(sp)
     8c8:	ce02                	sw	zero,28(sp)
     8ca:	241000ef          	jal	ra,130a <DMA_Init>
     8ce:	4605                	li	a2,1
     8d0:	4589                	li	a1,2
     8d2:	05840513          	addi	a0,s0,88
     8d6:	281000ef          	jal	ra,1356 <DMA_ITConfig>
     8da:	11f00793          	li	a5,287
     8de:	867c                	sh	a5,12(sp)
     8e0:	4785                	li	a5,1
     8e2:	875c                	sb	a5,14(sp)
     8e4:	0068                	addi	a0,sp,12
     8e6:	4785                	li	a5,1
     8e8:	c83e                	sw	a5,16(sp)
     8ea:	459000ef          	jal	ra,1542 <NVIC_Init>
     8ee:	05840513          	addi	a0,s0,88
     8f2:	4585                	li	a1,1
     8f4:	24f000ef          	jal	ra,1342 <DMA_Cmd>
     8f8:	4605                	li	a2,1
     8fa:	04000593          	li	a1,64
     8fe:	80048513          	addi	a0,s1,-2048
     902:	73d000ef          	jal	ra,183e <USART_DMACmd>
     906:	6121                	addi	sp,sp,64
     908:	b90d                	j	53a <__riscv_restore_0>

0000090a <ring_buffer_pop>:
     90a:	9ac18713          	addi	a4,gp,-1620 # 2000022c <ring_buffer>
     90e:	40275683          	lhu	a3,1026(a4)
     912:	9ac18793          	addi	a5,gp,-1620 # 2000022c <ring_buffer>
     916:	96ba                	add	a3,a3,a4
     918:	2288                	lbu	a0,0(a3)
     91a:	40275683          	lhu	a3,1026(a4)
     91e:	0685                	addi	a3,a3,1
     920:	06c2                	slli	a3,a3,0x10
     922:	82c1                	srli	a3,a3,0x10
     924:	40d71123          	sh	a3,1026(a4)
     928:	40275703          	lhu	a4,1026(a4)
     92c:	3ff00693          	li	a3,1023
     930:	00e6f463          	bgeu	a3,a4,938 <ring_buffer_pop+0x2e>
     934:	40079123          	sh	zero,1026(a5)
     938:	4047d703          	lhu	a4,1028(a5)
     93c:	177d                	addi	a4,a4,-1
     93e:	0742                	slli	a4,a4,0x10
     940:	8341                	srli	a4,a4,0x10
     942:	40e79223          	sh	a4,1028(a5)
     946:	8082                	ret

00000948 <USART1_IRQHandler>:
     948:	1101                	addi	sp,sp,-32
     94a:	c84e                	sw	s3,16(sp)
     94c:	400149b7          	lui	s3,0x40014
     950:	42400593          	li	a1,1060
     954:	80098513          	addi	a0,s3,-2048 # 40013800 <__freertos_irq_stack_top+0x20003800>
     958:	ce22                	sw	s0,28(sp)
     95a:	cc26                	sw	s1,24(sp)
     95c:	ca4a                	sw	s2,20(sp)
     95e:	c652                	sw	s4,12(sp)
     960:	70b000ef          	jal	ra,186a <USART_GetITStatus>
     964:	c13d                	beqz	a0,9ca <USART1_IRQHandler+0x82>
     966:	200004b7          	lui	s1,0x20000
     96a:	12848493          	addi	s1,s1,296 # 20000128 <USART1_DMA_CTRL>
     96e:	40020937          	lui	s2,0x40020
     972:	05c92a03          	lw	s4,92(s2) # 4002005c <__freertos_irq_stack_top+0x2001005c>
     976:	2080                	lbu	s0,0(s1)
     978:	05890913          	addi	s2,s2,88
     97c:	4581                	li	a1,0
     97e:	0ff47413          	andi	s0,s0,255
     982:	00143793          	seqz	a5,s0
     986:	854a                	mv	a0,s2
     988:	a09c                	sb	a5,0(s1)
     98a:	1b9000ef          	jal	ra,1342 <DMA_Cmd>
     98e:	08000593          	li	a1,128
     992:	854a                	mv	a0,s2
     994:	1d5000ef          	jal	ra,1368 <DMA_SetCurrDataCounter>
     998:	209c                	lbu	a5,0(s1)
     99a:	4585                	li	a1,1
     99c:	854a                	mv	a0,s2
     99e:	079e                	slli	a5,a5,0x7
     9a0:	0785                	addi	a5,a5,1
     9a2:	97a6                	add	a5,a5,s1
     9a4:	00f92623          	sw	a5,12(s2)
     9a8:	19b000ef          	jal	ra,1342 <DMA_Cmd>
     9ac:	80098513          	addi	a0,s3,-2048
     9b0:	6a9000ef          	jal	ra,1858 <USART_ReceiveData>
     9b4:	08000593          	li	a1,128
     9b8:	414585b3          	sub	a1,a1,s4
     9bc:	00741513          	slli	a0,s0,0x7
     9c0:	0505                	addi	a0,a0,1
     9c2:	05c2                	slli	a1,a1,0x10
     9c4:	81c1                	srli	a1,a1,0x10
     9c6:	9526                	add	a0,a0,s1
     9c8:	33bd                	jal	736 <ring_buffer_push_huge>
     9ca:	4472                	lw	s0,28(sp)
     9cc:	44e2                	lw	s1,24(sp)
     9ce:	4952                	lw	s2,20(sp)
     9d0:	49c2                	lw	s3,16(sp)
     9d2:	4a32                	lw	s4,12(sp)
     9d4:	6105                	addi	sp,sp,32
     9d6:	30200073          	mret

000009da <DMA1_Channel5_IRQHandler>:
     9da:	1141                	addi	sp,sp,-16
     9dc:	c426                	sw	s1,8(sp)
     9de:	200004b7          	lui	s1,0x20000
     9e2:	12848493          	addi	s1,s1,296 # 20000128 <USART1_DMA_CTRL>
     9e6:	c622                	sw	s0,12(sp)
     9e8:	2080                	lbu	s0,0(s1)
     9ea:	c24a                	sw	s2,4(sp)
     9ec:	40020937          	lui	s2,0x40020
     9f0:	0ff47413          	andi	s0,s0,255
     9f4:	00143793          	seqz	a5,s0
     9f8:	05890513          	addi	a0,s2,88 # 40020058 <__freertos_irq_stack_top+0x20010058>
     9fc:	4581                	li	a1,0
     9fe:	a09c                	sb	a5,0(s1)
     a00:	143000ef          	jal	ra,1342 <DMA_Cmd>
     a04:	05890513          	addi	a0,s2,88
     a08:	08000593          	li	a1,128
     a0c:	15d000ef          	jal	ra,1368 <DMA_SetCurrDataCounter>
     a10:	209c                	lbu	a5,0(s1)
     a12:	05890513          	addi	a0,s2,88
     a16:	4585                	li	a1,1
     a18:	079e                	slli	a5,a5,0x7
     a1a:	0785                	addi	a5,a5,1
     a1c:	97a6                	add	a5,a5,s1
     a1e:	c55c                	sw	a5,12(a0)
     a20:	123000ef          	jal	ra,1342 <DMA_Cmd>
     a24:	00741513          	slli	a0,s0,0x7
     a28:	0505                	addi	a0,a0,1
     a2a:	9526                	add	a0,a0,s1
     a2c:	08000593          	li	a1,128
     a30:	3319                	jal	736 <ring_buffer_push_huge>
     a32:	00020537          	lui	a0,0x20
     a36:	163000ef          	jal	ra,1398 <DMA_ClearITPendingBit>
     a3a:	4432                	lw	s0,12(sp)
     a3c:	44a2                	lw	s1,8(sp)
     a3e:	4912                	lw	s2,4(sp)
     a40:	0141                	addi	sp,sp,16
     a42:	30200073          	mret

00000a46 <NMI_Handler>:
     a46:	a001                	j	a46 <NMI_Handler>

00000a48 <HardFault_Handler>:
     a48:	beef07b7          	lui	a5,0xbeef0
     a4c:	e000e737          	lui	a4,0xe000e
     a50:	08078793          	addi	a5,a5,128 # beef0080 <__freertos_irq_stack_top+0x9eee0080>
     a54:	c73c                	sw	a5,72(a4)
     a56:	a001                	j	a56 <HardFault_Handler+0xe>

00000a58 <UART_task>:
     a58:	abfff2ef          	jal	t0,516 <__riscv_save_0>
     a5c:	20000437          	lui	s0,0x20000
     a60:	22c40413          	addi	s0,s0,556 # 2000022c <ring_buffer>
     a64:	00004937          	lui	s2,0x4
     a68:	000044b7          	lui	s1,0x4
     a6c:	40445583          	lhu	a1,1028(s0)
     a70:	35c90513          	addi	a0,s2,860 # 435c <_read+0x50>
     a74:	5d8020ef          	jal	ra,304c <iprintf>
     a78:	40445783          	lhu	a5,1028(s0)
     a7c:	07c2                	slli	a5,a5,0x10
     a7e:	83c1                	srli	a5,a5,0x10
     a80:	eb91                	bnez	a5,a94 <UART_task+0x3c>
     a82:	36c48513          	addi	a0,s1,876 # 436c <_read+0x60>
     a86:	704020ef          	jal	ra,318a <puts>
     a8a:	3e800513          	li	a0,1000
     a8e:	50d010ef          	jal	ra,279a <vTaskDelay>
     a92:	bfe9                	j	a6c <UART_task+0x14>
     a94:	3d9d                	jal	90a <ring_buffer_pop>
     a96:	5f6020ef          	jal	ra,308c <putchar>
     a9a:	bff9                	j	a78 <UART_task+0x20>

00000a9c <CAN_task>:
     a9c:	a53ff2ef          	jal	t0,4ee <__riscv_save_10>
     aa0:	00004537          	lui	a0,0x4
     aa4:	1141                	addi	sp,sp,-16
     aa6:	31c50513          	addi	a0,a0,796 # 431c <_read+0x10>
     aaa:	6e0020ef          	jal	ra,318a <puts>
     aae:	4701                	li	a4,0
     ab0:	46c1                	li	a3,16
     ab2:	4615                	li	a2,5
     ab4:	4591                	li	a1,4
     ab6:	4501                	li	a0,0
     ab8:	3e1d                	jal	5ee <CAN_Mode_Init>
     aba:	4405                	li	s0,1
     abc:	4921                	li	s2,8
     abe:	00004a37          	lui	s4,0x4
     ac2:	00004ab7          	lui	s5,0x4
     ac6:	00004b37          	lui	s6,0x4
     aca:	00004bb7          	lui	s7,0x4
     ace:	0ff00993          	li	s3,255
     ad2:	4781                	li	a5,0
     ad4:	0038                	addi	a4,sp,8
     ad6:	973e                	add	a4,a4,a5
     ad8:	00f406b3          	add	a3,s0,a5
     adc:	a314                	sb	a3,0(a4)
     ade:	0785                	addi	a5,a5,1
     ae0:	ff279ae3          	bne	a5,s2,ad4 <CAN_task+0x38>
     ae4:	45a1                	li	a1,8
     ae6:	0028                	addi	a0,sp,8
     ae8:	3ec9                	jal	6ba <CAN_Send_Msg>
     aea:	c105                	beqz	a0,b0a <CAN_task+0x6e>
     aec:	328b8513          	addi	a0,s7,808 # 4328 <_read+0x1c>
     af0:	69a020ef          	jal	ra,318a <puts>
     af4:	0405                	addi	s0,s0,1
     af6:	3e800513          	li	a0,1000
     afa:	0ff47413          	andi	s0,s0,255
     afe:	3a0020ef          	jal	ra,2e9e <Delay_Ms>
     b02:	fd3418e3          	bne	s0,s3,ad2 <CAN_task+0x36>
     b06:	4401                	li	s0,0
     b08:	b7e9                	j	ad2 <CAN_task+0x36>
     b0a:	338a0513          	addi	a0,s4,824 # 4338 <_read+0x2c>
     b0e:	67c020ef          	jal	ra,318a <puts>
     b12:	348a8513          	addi	a0,s5,840 # 4348 <_read+0x3c>
     b16:	674020ef          	jal	ra,318a <puts>
     b1a:	4481                	li	s1,0
     b1c:	003c                	addi	a5,sp,8
     b1e:	97a6                	add	a5,a5,s1
     b20:	238c                	lbu	a1,0(a5)
     b22:	354b0513          	addi	a0,s6,852 # 4354 <_read+0x48>
     b26:	0485                	addi	s1,s1,1
     b28:	524020ef          	jal	ra,304c <iprintf>
     b2c:	ff2498e3          	bne	s1,s2,b1c <CAN_task+0x80>
     b30:	b7d1                	j	af4 <CAN_task+0x58>

00000b32 <main>:
     b32:	9e5ff2ef          	jal	t0,516 <__riscv_save_0>
     b36:	4509                	li	a0,2
     b38:	201000ef          	jal	ra,1538 <NVIC_PriorityGroupConfig>
     b3c:	6471                	lui	s0,0x1c
     b3e:	2245                	jal	cde <SystemCoreClockUpdate>
     b40:	32c020ef          	jal	ra,2e6c <Delay_Init>
     b44:	20040513          	addi	a0,s0,512 # 1c200 <_data_lma+0x17c8c>
     b48:	390020ef          	jal	ra,2ed8 <USART_Printf_Init>
     b4c:	20040513          	addi	a0,s0,512
     b50:	3141                	jal	7d0 <USARTx_CFG>
     b52:	3b39                	jal	870 <DMA_INIT>
     b54:	200007b7          	lui	a5,0x20000
     b58:	0807a583          	lw	a1,128(a5) # 20000080 <SystemCoreClock>
     b5c:	00004537          	lui	a0,0x4
     b60:	37450513          	addi	a0,a0,884 # 4374 <_read+0x68>
     b64:	4e8020ef          	jal	ra,304c <iprintf>
     b68:	2535                	jal	1194 <DBGMCU_GetCHIPID>
     b6a:	85aa                	mv	a1,a0
     b6c:	00004537          	lui	a0,0x4
     b70:	38450513          	addi	a0,a0,900 # 4384 <_read+0x78>
     b74:	4d8020ef          	jal	ra,304c <iprintf>
     b78:	00004537          	lui	a0,0x4
     b7c:	39450513          	addi	a0,a0,916 # 4394 <_read+0x88>
     b80:	60a020ef          	jal	ra,318a <puts>
     b84:	000045b7          	lui	a1,0x4
     b88:	00004537          	lui	a0,0x4
     b8c:	3a858593          	addi	a1,a1,936 # 43a8 <_read+0x9c>
     b90:	3b050513          	addi	a0,a0,944 # 43b0 <_read+0xa4>
     b94:	4b8020ef          	jal	ra,304c <iprintf>
     b98:	200007b7          	lui	a5,0x20000
     b9c:	000045b7          	lui	a1,0x4
     ba0:	00001537          	lui	a0,0x1
     ba4:	0a078793          	addi	a5,a5,160 # 200000a0 <_edata>
     ba8:	4715                	li	a4,5
     baa:	4681                	li	a3,0
     bac:	10000613          	li	a2,256
     bb0:	3d058593          	addi	a1,a1,976 # 43d0 <_read+0xc4>
     bb4:	a9c50513          	addi	a0,a0,-1380 # a9c <CAN_task>
     bb8:	624010ef          	jal	ra,21dc <xTaskCreate>
     bbc:	200007b7          	lui	a5,0x20000
     bc0:	000045b7          	lui	a1,0x4
     bc4:	00001537          	lui	a0,0x1
     bc8:	0a478793          	addi	a5,a5,164 # 200000a4 <UART_Task_Handler>
     bcc:	4715                	li	a4,5
     bce:	4681                	li	a3,0
     bd0:	10000613          	li	a2,256
     bd4:	3dc58593          	addi	a1,a1,988 # 43dc <_read+0xd0>
     bd8:	a5850513          	addi	a0,a0,-1448 # a58 <UART_task>
     bdc:	600010ef          	jal	ra,21dc <xTaskCreate>
     be0:	001010ef          	jal	ra,23e0 <vTaskStartScheduler>
     be4:	a001                	j	be4 <main+0xb2>

00000be6 <SystemInit>:
     be6:	400217b7          	lui	a5,0x40021
     bea:	4398                	lw	a4,0(a5)
     bec:	f0ff06b7          	lui	a3,0xf0ff0
     bf0:	1141                	addi	sp,sp,-16
     bf2:	00176713          	ori	a4,a4,1
     bf6:	c398                	sw	a4,0(a5)
     bf8:	43d8                	lw	a4,4(a5)
     bfa:	00020637          	lui	a2,0x20
     bfe:	8f75                	and	a4,a4,a3
     c00:	c3d8                	sw	a4,4(a5)
     c02:	4398                	lw	a4,0(a5)
     c04:	fef706b7          	lui	a3,0xfef70
     c08:	16fd                	addi	a3,a3,-1
     c0a:	8f75                	and	a4,a4,a3
     c0c:	c398                	sw	a4,0(a5)
     c0e:	4398                	lw	a4,0(a5)
     c10:	fffc06b7          	lui	a3,0xfffc0
     c14:	16fd                	addi	a3,a3,-1
     c16:	8f75                	and	a4,a4,a3
     c18:	c398                	sw	a4,0(a5)
     c1a:	43d8                	lw	a4,4(a5)
     c1c:	ff0106b7          	lui	a3,0xff010
     c20:	16fd                	addi	a3,a3,-1
     c22:	8f75                	and	a4,a4,a3
     c24:	c3d8                	sw	a4,4(a5)
     c26:	4398                	lw	a4,0(a5)
     c28:	ec0006b7          	lui	a3,0xec000
     c2c:	16fd                	addi	a3,a3,-1
     c2e:	8f75                	and	a4,a4,a3
     c30:	c398                	sw	a4,0(a5)
     c32:	00ff0737          	lui	a4,0xff0
     c36:	c798                	sw	a4,8(a5)
     c38:	0207a623          	sw	zero,44(a5) # 4002102c <__freertos_irq_stack_top+0x2001102c>
     c3c:	c402                	sw	zero,8(sp)
     c3e:	c602                	sw	zero,12(sp)
     c40:	4398                	lw	a4,0(a5)
     c42:	66c1                	lui	a3,0x10
     c44:	8f55                	or	a4,a4,a3
     c46:	c398                	sw	a4,0(a5)
     c48:	400216b7          	lui	a3,0x40021
     c4c:	6705                	lui	a4,0x1
     c4e:	429c                	lw	a5,0(a3)
     c50:	8ff1                	and	a5,a5,a2
     c52:	c63e                	sw	a5,12(sp)
     c54:	47a2                	lw	a5,8(sp)
     c56:	0785                	addi	a5,a5,1
     c58:	c43e                	sw	a5,8(sp)
     c5a:	47b2                	lw	a5,12(sp)
     c5c:	e781                	bnez	a5,c64 <SystemInit+0x7e>
     c5e:	47a2                	lw	a5,8(sp)
     c60:	fee797e3          	bne	a5,a4,c4e <SystemInit+0x68>
     c64:	400217b7          	lui	a5,0x40021
     c68:	439c                	lw	a5,0(a5)
     c6a:	00e79713          	slli	a4,a5,0xe
     c6e:	06075663          	bgez	a4,cda <SystemInit+0xf4>
     c72:	4785                	li	a5,1
     c74:	c63e                	sw	a5,12(sp)
     c76:	4732                	lw	a4,12(sp)
     c78:	4785                	li	a5,1
     c7a:	04f71e63          	bne	a4,a5,cd6 <SystemInit+0xf0>
     c7e:	400217b7          	lui	a5,0x40021
     c82:	43d8                	lw	a4,4(a5)
     c84:	ffc106b7          	lui	a3,0xffc10
     c88:	16fd                	addi	a3,a3,-1
     c8a:	c3d8                	sw	a4,4(a5)
     c8c:	43d8                	lw	a4,4(a5)
     c8e:	c3d8                	sw	a4,4(a5)
     c90:	43d8                	lw	a4,4(a5)
     c92:	40076713          	ori	a4,a4,1024
     c96:	c3d8                	sw	a4,4(a5)
     c98:	43d8                	lw	a4,4(a5)
     c9a:	8f75                	and	a4,a4,a3
     c9c:	c3d8                	sw	a4,4(a5)
     c9e:	43d8                	lw	a4,4(a5)
     ca0:	66c1                	lui	a3,0x10
     ca2:	8f55                	or	a4,a4,a3
     ca4:	c3d8                	sw	a4,4(a5)
     ca6:	4398                	lw	a4,0(a5)
     ca8:	010006b7          	lui	a3,0x1000
     cac:	8f55                	or	a4,a4,a3
     cae:	c398                	sw	a4,0(a5)
     cb0:	4398                	lw	a4,0(a5)
     cb2:	00671693          	slli	a3,a4,0x6
     cb6:	fe06dde3          	bgez	a3,cb0 <SystemInit+0xca>
     cba:	43d8                	lw	a4,4(a5)
     cbc:	400216b7          	lui	a3,0x40021
     cc0:	9b71                	andi	a4,a4,-4
     cc2:	c3d8                	sw	a4,4(a5)
     cc4:	43d8                	lw	a4,4(a5)
     cc6:	00276713          	ori	a4,a4,2
     cca:	c3d8                	sw	a4,4(a5)
     ccc:	4721                	li	a4,8
     cce:	42dc                	lw	a5,4(a3)
     cd0:	8bb1                	andi	a5,a5,12
     cd2:	fee79ee3          	bne	a5,a4,cce <SystemInit+0xe8>
     cd6:	0141                	addi	sp,sp,16
     cd8:	8082                	ret
     cda:	c602                	sw	zero,12(sp)
     cdc:	bf69                	j	c76 <SystemInit+0x90>

00000cde <SystemCoreClockUpdate>:
     cde:	400216b7          	lui	a3,0x40021
     ce2:	42d8                	lw	a4,4(a3)
     ce4:	200007b7          	lui	a5,0x20000
     ce8:	4611                	li	a2,4
     cea:	8b31                	andi	a4,a4,12
     cec:	08078793          	addi	a5,a5,128 # 20000080 <SystemCoreClock>
     cf0:	00c70563          	beq	a4,a2,cfa <SystemCoreClockUpdate+0x1c>
     cf4:	4621                	li	a2,8
     cf6:	02c70863          	beq	a4,a2,d26 <SystemCoreClockUpdate+0x48>
     cfa:	007a1737          	lui	a4,0x7a1
     cfe:	20070713          	addi	a4,a4,512 # 7a1200 <_data_lma+0x79cc8c>
     d02:	c398                	sw	a4,0(a5)
     d04:	40021737          	lui	a4,0x40021
     d08:	4358                	lw	a4,4(a4)
     d0a:	8311                	srli	a4,a4,0x4
     d0c:	00f77693          	andi	a3,a4,15
     d10:	20000737          	lui	a4,0x20000
     d14:	00070713          	mv	a4,a4
     d18:	9736                	add	a4,a4,a3
     d1a:	2314                	lbu	a3,0(a4)
     d1c:	4398                	lw	a4,0(a5)
     d1e:	00d75733          	srl	a4,a4,a3
     d22:	c398                	sw	a4,0(a5)
     d24:	8082                	ret
     d26:	42d8                	lw	a4,4(a3)
     d28:	42d4                	lw	a3,4(a3)
     d2a:	6641                	lui	a2,0x10
     d2c:	8349                	srli	a4,a4,0x12
     d2e:	8b3d                	andi	a4,a4,15
     d30:	8ef1                	and	a3,a3,a2
     d32:	00270613          	addi	a2,a4,2 # 20000002 <_data_vma+0x2>
     d36:	cf15                	beqz	a4,d72 <SystemCoreClockUpdate+0x94>
     d38:	473d                	li	a4,15
     d3a:	02e60f63          	beq	a2,a4,d78 <SystemCoreClockUpdate+0x9a>
     d3e:	4741                	li	a4,16
     d40:	02e60f63          	beq	a2,a4,d7e <SystemCoreClockUpdate+0xa0>
     d44:	4745                	li	a4,17
     d46:	4581                	li	a1,0
     d48:	00e61363          	bne	a2,a4,d4e <SystemCoreClockUpdate+0x70>
     d4c:	4641                	li	a2,16
     d4e:	e2a1                	bnez	a3,d8e <SystemCoreClockUpdate+0xb0>
     d50:	40024737          	lui	a4,0x40024
     d54:	80072703          	lw	a4,-2048(a4) # 40023800 <__freertos_irq_stack_top+0x20013800>
     d58:	8b41                	andi	a4,a4,16
     d5a:	c70d                	beqz	a4,d84 <SystemCoreClockUpdate+0xa6>
     d5c:	007a1737          	lui	a4,0x7a1
     d60:	20070713          	addi	a4,a4,512 # 7a1200 <_data_lma+0x79cc8c>
     d64:	02c70633          	mul	a2,a4,a2
     d68:	c390                	sw	a2,0(a5)
     d6a:	ddc9                	beqz	a1,d04 <SystemCoreClockUpdate+0x26>
     d6c:	4398                	lw	a4,0(a5)
     d6e:	8305                	srli	a4,a4,0x1
     d70:	bf49                	j	d02 <SystemCoreClockUpdate+0x24>
     d72:	4581                	li	a1,0
     d74:	4649                	li	a2,18
     d76:	bfe1                	j	d4e <SystemCoreClockUpdate+0x70>
     d78:	4585                	li	a1,1
     d7a:	4635                	li	a2,13
     d7c:	bfc9                	j	d4e <SystemCoreClockUpdate+0x70>
     d7e:	4581                	li	a1,0
     d80:	463d                	li	a2,15
     d82:	b7f1                	j	d4e <SystemCoreClockUpdate+0x70>
     d84:	003d1737          	lui	a4,0x3d1
     d88:	90070713          	addi	a4,a4,-1792 # 3d0900 <_data_lma+0x3cc38c>
     d8c:	bfe1                	j	d64 <SystemCoreClockUpdate+0x86>
     d8e:	40021537          	lui	a0,0x40021
     d92:	5558                	lw	a4,44(a0)
     d94:	00f71693          	slli	a3,a4,0xf
     d98:	5558                	lw	a4,44(a0)
     d9a:	0406df63          	bgez	a3,df8 <SystemCoreClockUpdate+0x11a>
     d9e:	8311                	srli	a4,a4,0x4
     da0:	8b3d                	andi	a4,a4,15
     da2:	00170693          	addi	a3,a4,1
     da6:	007a1737          	lui	a4,0x7a1
     daa:	20070713          	addi	a4,a4,512 # 7a1200 <_data_lma+0x79cc8c>
     dae:	02d75733          	divu	a4,a4,a3
     db2:	c398                	sw	a4,0(a5)
     db4:	5554                	lw	a3,44(a0)
     db6:	82a1                	srli	a3,a3,0x8
     db8:	8abd                	andi	a3,a3,15
     dba:	e28d                	bnez	a3,ddc <SystemCoreClockUpdate+0xfe>
     dbc:	4695                	li	a3,5
     dbe:	02d70733          	mul	a4,a4,a3
     dc2:	8305                	srli	a4,a4,0x1
     dc4:	c398                	sw	a4,0(a5)
     dc6:	40021737          	lui	a4,0x40021
     dca:	5758                	lw	a4,44(a4)
     dcc:	4394                	lw	a3,0(a5)
     dce:	8b3d                	andi	a4,a4,15
     dd0:	0705                	addi	a4,a4,1
     dd2:	02e6d733          	divu	a4,a3,a4
     dd6:	c398                	sw	a4,0(a5)
     dd8:	4398                	lw	a4,0(a5)
     dda:	b769                	j	d64 <SystemCoreClockUpdate+0x86>
     ddc:	4505                	li	a0,1
     dde:	00a69463          	bne	a3,a0,de6 <SystemCoreClockUpdate+0x108>
     de2:	46e5                	li	a3,25
     de4:	bfe9                	j	dbe <SystemCoreClockUpdate+0xe0>
     de6:	453d                	li	a0,15
     de8:	00a69663          	bne	a3,a0,df4 <SystemCoreClockUpdate+0x116>
     dec:	46d1                	li	a3,20
     dee:	02e68733          	mul	a4,a3,a4
     df2:	bfc9                	j	dc4 <SystemCoreClockUpdate+0xe6>
     df4:	0689                	addi	a3,a3,2
     df6:	bfe5                	j	dee <SystemCoreClockUpdate+0x110>
     df8:	8b3d                	andi	a4,a4,15
     dfa:	00170693          	addi	a3,a4,1 # 40021001 <__freertos_irq_stack_top+0x20011001>
     dfe:	007a1737          	lui	a4,0x7a1
     e02:	20070713          	addi	a4,a4,512 # 7a1200 <_data_lma+0x79cc8c>
     e06:	02d75733          	divu	a4,a4,a3
     e0a:	b7f1                	j	dd6 <SystemCoreClockUpdate+0xf8>

00000e0c <ADC1_2_IRQHandler>:
     e0c:	a001                	j	e0c <ADC1_2_IRQHandler>

00000e0e <handle_reset>:
     e0e:	20000197          	auipc	gp,0x20000
     e12:	a7218193          	addi	gp,gp,-1422 # 20000880 <__global_pointer$>
     e16:	2000f117          	auipc	sp,0x2000f
     e1a:	1ea10113          	addi	sp,sp,490 # 20010000 <__freertos_irq_stack_top>
     e1e:	00003517          	auipc	a0,0x3
     e22:	75650513          	addi	a0,a0,1878 # 4574 <_data_lma>
     e26:	1ffff597          	auipc	a1,0x1ffff
     e2a:	1da58593          	addi	a1,a1,474 # 20000000 <_data_vma>
     e2e:	82018613          	addi	a2,gp,-2016 # 200000a0 <_edata>
     e32:	00c5fa63          	bgeu	a1,a2,e46 <handle_reset+0x38>
     e36:	00052283          	lw	t0,0(a0)
     e3a:	0055a023          	sw	t0,0(a1)
     e3e:	0511                	addi	a0,a0,4
     e40:	0591                	addi	a1,a1,4
     e42:	fec5eae3          	bltu	a1,a2,e36 <handle_reset+0x28>
     e46:	1ffff517          	auipc	a0,0x1ffff
     e4a:	25a50513          	addi	a0,a0,602 # 200000a0 <_edata>
     e4e:	20003597          	auipc	a1,0x20003
     e52:	9e258593          	addi	a1,a1,-1566 # 20003830 <_ebss>
     e56:	00b57763          	bgeu	a0,a1,e64 <handle_reset+0x56>
     e5a:	00052023          	sw	zero,0(a0)
     e5e:	0511                	addi	a0,a0,4
     e60:	feb56de3          	bltu	a0,a1,e5a <handle_reset+0x4c>
     e64:	42fd                	li	t0,31
     e66:	bc029073          	csrw	0xbc0,t0
     e6a:	42fd                	li	t0,31
     e6c:	80429073          	csrw	0x804,t0
     e70:	000082b7          	lui	t0,0x8
     e74:	80028293          	addi	t0,t0,-2048 # 7800 <_data_lma+0x328c>
     e78:	30029073          	csrw	mstatus,t0
     e7c:	fffff297          	auipc	t0,0xfffff
     e80:	18828293          	addi	t0,t0,392 # 4 <_einit>
     e84:	0032e293          	ori	t0,t0,3
     e88:	30529073          	csrw	mtvec,t0
     e8c:	d5bff0ef          	jal	ra,be6 <SystemInit>
     e90:	00000297          	auipc	t0,0x0
     e94:	ca228293          	addi	t0,t0,-862 # b32 <main>
     e98:	34129073          	csrw	mepc,t0
     e9c:	30200073          	mret

00000ea0 <CAN_Init>:
     ea0:	4118                	lw	a4,0(a0)
     ea2:	87aa                	mv	a5,a0
     ea4:	9b75                	andi	a4,a4,-3
     ea6:	c118                	sw	a4,0(a0)
     ea8:	4118                	lw	a4,0(a0)
     eaa:	00176713          	ori	a4,a4,1
     eae:	c118                	sw	a4,0(a0)
     eb0:	6741                	lui	a4,0x10
     eb2:	43d4                	lw	a3,4(a5)
     eb4:	8a85                	andi	a3,a3,1
     eb6:	e299                	bnez	a3,ebc <CAN_Init+0x1c>
     eb8:	177d                	addi	a4,a4,-1
     eba:	ff65                	bnez	a4,eb2 <CAN_Init+0x12>
     ebc:	43d8                	lw	a4,4(a5)
     ebe:	4501                	li	a0,0
     ec0:	8b05                	andi	a4,a4,1
     ec2:	cf49                	beqz	a4,f5c <CAN_Init+0xbc>
     ec4:	4594                	lw	a3,8(a1)
     ec6:	4705                	li	a4,1
     ec8:	08e69b63          	bne	a3,a4,f5e <CAN_Init+0xbe>
     ecc:	4398                	lw	a4,0(a5)
     ece:	08076713          	ori	a4,a4,128
     ed2:	45d4                	lw	a3,12(a1)
     ed4:	c398                	sw	a4,0(a5)
     ed6:	4705                	li	a4,1
     ed8:	08e69763          	bne	a3,a4,f66 <CAN_Init+0xc6>
     edc:	4398                	lw	a4,0(a5)
     ede:	04076713          	ori	a4,a4,64
     ee2:	4994                	lw	a3,16(a1)
     ee4:	c398                	sw	a4,0(a5)
     ee6:	4705                	li	a4,1
     ee8:	08e69363          	bne	a3,a4,f6e <CAN_Init+0xce>
     eec:	4398                	lw	a4,0(a5)
     eee:	02076713          	ori	a4,a4,32
     ef2:	49d4                	lw	a3,20(a1)
     ef4:	c398                	sw	a4,0(a5)
     ef6:	4705                	li	a4,1
     ef8:	06e69f63          	bne	a3,a4,f76 <CAN_Init+0xd6>
     efc:	4398                	lw	a4,0(a5)
     efe:	01076713          	ori	a4,a4,16
     f02:	4d94                	lw	a3,24(a1)
     f04:	c398                	sw	a4,0(a5)
     f06:	4705                	li	a4,1
     f08:	06e69a63          	bne	a3,a4,f7c <CAN_Init+0xdc>
     f0c:	4398                	lw	a4,0(a5)
     f0e:	00876713          	ori	a4,a4,8
     f12:	4dd4                	lw	a3,28(a1)
     f14:	c398                	sw	a4,0(a5)
     f16:	4705                	li	a4,1
     f18:	06e69563          	bne	a3,a4,f82 <CAN_Init+0xe2>
     f1c:	4398                	lw	a4,0(a5)
     f1e:	00476713          	ori	a4,a4,4
     f22:	c398                	sw	a4,0(a5)
     f24:	21b8                	lbu	a4,2(a1)
     f26:	31b4                	lbu	a3,3(a1)
     f28:	077a                	slli	a4,a4,0x1e
     f2a:	06e2                	slli	a3,a3,0x18
     f2c:	8f55                	or	a4,a4,a3
     f2e:	21d4                	lbu	a3,4(a1)
     f30:	06c2                	slli	a3,a3,0x10
     f32:	8f55                	or	a4,a4,a3
     f34:	31d4                	lbu	a3,5(a1)
     f36:	06d2                	slli	a3,a3,0x14
     f38:	8f55                	or	a4,a4,a3
     f3a:	2196                	lhu	a3,0(a1)
     f3c:	16fd                	addi	a3,a3,-1
     f3e:	8f55                	or	a4,a4,a3
     f40:	cfd8                	sw	a4,28(a5)
     f42:	4398                	lw	a4,0(a5)
     f44:	9b79                	andi	a4,a4,-2
     f46:	c398                	sw	a4,0(a5)
     f48:	6741                	lui	a4,0x10
     f4a:	43d4                	lw	a3,4(a5)
     f4c:	8a85                	andi	a3,a3,1
     f4e:	c299                	beqz	a3,f54 <CAN_Init+0xb4>
     f50:	177d                	addi	a4,a4,-1
     f52:	ff65                	bnez	a4,f4a <CAN_Init+0xaa>
     f54:	43c8                	lw	a0,4(a5)
     f56:	fff54513          	not	a0,a0
     f5a:	8905                	andi	a0,a0,1
     f5c:	8082                	ret
     f5e:	4398                	lw	a4,0(a5)
     f60:	f7f77713          	andi	a4,a4,-129
     f64:	b7bd                	j	ed2 <CAN_Init+0x32>
     f66:	4398                	lw	a4,0(a5)
     f68:	fbf77713          	andi	a4,a4,-65
     f6c:	bf9d                	j	ee2 <CAN_Init+0x42>
     f6e:	4398                	lw	a4,0(a5)
     f70:	fdf77713          	andi	a4,a4,-33
     f74:	bfbd                	j	ef2 <CAN_Init+0x52>
     f76:	4398                	lw	a4,0(a5)
     f78:	9b3d                	andi	a4,a4,-17
     f7a:	b761                	j	f02 <CAN_Init+0x62>
     f7c:	4398                	lw	a4,0(a5)
     f7e:	9b5d                	andi	a4,a4,-9
     f80:	bf49                	j	f12 <CAN_Init+0x72>
     f82:	4398                	lw	a4,0(a5)
     f84:	9b6d                	andi	a4,a4,-5
     f86:	bf71                	j	f22 <CAN_Init+0x82>

00000f88 <CAN_FilterInit>:
     f88:	40006737          	lui	a4,0x40006
     f8c:	40070713          	addi	a4,a4,1024 # 40006400 <__freertos_irq_stack_top+0x1fff6400>
     f90:	20072683          	lw	a3,512(a4)
     f94:	253c                	lbu	a5,10(a0)
     f96:	4805                	li	a6,1
     f98:	0016e693          	ori	a3,a3,1
     f9c:	20d72023          	sw	a3,512(a4)
     fa0:	21c72583          	lw	a1,540(a4)
     fa4:	00f81633          	sll	a2,a6,a5
     fa8:	fff64693          	not	a3,a2
     fac:	8df5                	and	a1,a1,a3
     fae:	20b72e23          	sw	a1,540(a4)
     fb2:	254c                	lbu	a1,12(a0)
     fb4:	edbd                	bnez	a1,1032 <CAN_FilterInit+0xaa>
     fb6:	20c72583          	lw	a1,524(a4)
     fba:	00255803          	lhu	a6,2(a0)
     fbe:	078e                	slli	a5,a5,0x3
     fc0:	8df5                	and	a1,a1,a3
     fc2:	20b72623          	sw	a1,524(a4)
     fc6:	216e                	lhu	a1,6(a0)
     fc8:	97ba                	add	a5,a5,a4
     fca:	215a                	lhu	a4,4(a0)
     fcc:	05c2                	slli	a1,a1,0x10
     fce:	0105e5b3          	or	a1,a1,a6
     fd2:	24b7a023          	sw	a1,576(a5)
     fd6:	210e                	lhu	a1,0(a0)
     fd8:	0742                	slli	a4,a4,0x10
     fda:	8f4d                	or	a4,a4,a1
     fdc:	24e7a223          	sw	a4,580(a5)
     fe0:	3538                	lbu	a4,11(a0)
     fe2:	400067b7          	lui	a5,0x40006
     fe6:	40078793          	addi	a5,a5,1024 # 40006400 <__freertos_irq_stack_top+0x1fff6400>
     fea:	eb2d                	bnez	a4,105c <CAN_FilterInit+0xd4>
     fec:	2047a703          	lw	a4,516(a5)
     ff0:	8f75                	and	a4,a4,a3
     ff2:	20e7a223          	sw	a4,516(a5)
     ff6:	251a                	lhu	a4,8(a0)
     ff8:	400067b7          	lui	a5,0x40006
     ffc:	40078793          	addi	a5,a5,1024 # 40006400 <__freertos_irq_stack_top+0x1fff6400>
    1000:	e335                	bnez	a4,1064 <CAN_FilterInit+0xdc>
    1002:	2147a703          	lw	a4,532(a5)
    1006:	8ef9                	and	a3,a3,a4
    1008:	20d7aa23          	sw	a3,532(a5)
    100c:	4918                	lw	a4,16(a0)
    100e:	4785                	li	a5,1
    1010:	00f71963          	bne	a4,a5,1022 <CAN_FilterInit+0x9a>
    1014:	400067b7          	lui	a5,0x40006
    1018:	61c7a703          	lw	a4,1564(a5) # 4000661c <__freertos_irq_stack_top+0x1fff661c>
    101c:	8e59                	or	a2,a2,a4
    101e:	60c7ae23          	sw	a2,1564(a5)
    1022:	400067b7          	lui	a5,0x40006
    1026:	6007a703          	lw	a4,1536(a5) # 40006600 <__freertos_irq_stack_top+0x1fff6600>
    102a:	9b79                	andi	a4,a4,-2
    102c:	60e7a023          	sw	a4,1536(a5)
    1030:	8082                	ret
    1032:	fb0597e3          	bne	a1,a6,fe0 <CAN_FilterInit+0x58>
    1036:	20c72583          	lw	a1,524(a4)
    103a:	00255803          	lhu	a6,2(a0)
    103e:	078e                	slli	a5,a5,0x3
    1040:	8dd1                	or	a1,a1,a2
    1042:	20b72623          	sw	a1,524(a4)
    1046:	210e                	lhu	a1,0(a0)
    1048:	97ba                	add	a5,a5,a4
    104a:	215a                	lhu	a4,4(a0)
    104c:	05c2                	slli	a1,a1,0x10
    104e:	0105e5b3          	or	a1,a1,a6
    1052:	24b7a023          	sw	a1,576(a5)
    1056:	0742                	slli	a4,a4,0x10
    1058:	216e                	lhu	a1,6(a0)
    105a:	b741                	j	fda <CAN_FilterInit+0x52>
    105c:	2047a703          	lw	a4,516(a5)
    1060:	8f51                	or	a4,a4,a2
    1062:	bf41                	j	ff2 <CAN_FilterInit+0x6a>
    1064:	4685                	li	a3,1
    1066:	fad713e3          	bne	a4,a3,100c <CAN_FilterInit+0x84>
    106a:	2147a703          	lw	a4,532(a5)
    106e:	8f51                	or	a4,a4,a2
    1070:	20e7aa23          	sw	a4,532(a5)
    1074:	bf61                	j	100c <CAN_FilterInit+0x84>

00001076 <CAN_Transmit>:
    1076:	451c                	lw	a5,8(a0)
    1078:	00579713          	slli	a4,a5,0x5
    107c:	08074e63          	bltz	a4,1118 <CAN_Transmit+0xa2>
    1080:	451c                	lw	a5,8(a0)
    1082:	00479713          	slli	a4,a5,0x4
    1086:	08074b63          	bltz	a4,111c <CAN_Transmit+0xa6>
    108a:	451c                	lw	a5,8(a0)
    108c:	4691                	li	a3,4
    108e:	00379713          	slli	a4,a5,0x3
    1092:	08075163          	bgez	a4,1114 <CAN_Transmit+0x9e>
    1096:	4689                	li	a3,2
    1098:	00469793          	slli	a5,a3,0x4
    109c:	97aa                	add	a5,a5,a0
    109e:	1807a703          	lw	a4,384(a5)
    10a2:	8b05                	andi	a4,a4,1
    10a4:	18e7a023          	sw	a4,384(a5)
    10a8:	2590                	lbu	a2,8(a1)
    10aa:	3588                	lbu	a0,9(a1)
    10ac:	ea35                	bnez	a2,1120 <CAN_Transmit+0xaa>
    10ae:	4198                	lw	a4,0(a1)
    10b0:	1807a603          	lw	a2,384(a5)
    10b4:	0756                	slli	a4,a4,0x15
    10b6:	8f49                	or	a4,a4,a0
    10b8:	8f51                	or	a4,a4,a2
    10ba:	18e7a023          	sw	a4,384(a5)
    10be:	25b8                	lbu	a4,10(a1)
    10c0:	8b3d                	andi	a4,a4,15
    10c2:	a5b8                	sb	a4,10(a1)
    10c4:	1847a603          	lw	a2,388(a5)
    10c8:	9a41                	andi	a2,a2,-16
    10ca:	18c7a223          	sw	a2,388(a5)
    10ce:	1847a603          	lw	a2,388(a5)
    10d2:	8f51                	or	a4,a4,a2
    10d4:	18e7a223          	sw	a4,388(a5)
    10d8:	25d0                	lbu	a2,12(a1)
    10da:	35b8                	lbu	a4,11(a1)
    10dc:	0622                	slli	a2,a2,0x8
    10de:	8e59                	or	a2,a2,a4
    10e0:	35d8                	lbu	a4,13(a1)
    10e2:	0742                	slli	a4,a4,0x10
    10e4:	8e59                	or	a2,a2,a4
    10e6:	25f8                	lbu	a4,14(a1)
    10e8:	0762                	slli	a4,a4,0x18
    10ea:	8f51                	or	a4,a4,a2
    10ec:	18e7a423          	sw	a4,392(a5)
    10f0:	2990                	lbu	a2,16(a1)
    10f2:	35f8                	lbu	a4,15(a1)
    10f4:	0622                	slli	a2,a2,0x8
    10f6:	8e59                	or	a2,a2,a4
    10f8:	3998                	lbu	a4,17(a1)
    10fa:	0742                	slli	a4,a4,0x10
    10fc:	8e59                	or	a2,a2,a4
    10fe:	29b8                	lbu	a4,18(a1)
    1100:	0762                	slli	a4,a4,0x18
    1102:	8f51                	or	a4,a4,a2
    1104:	18e7a623          	sw	a4,396(a5)
    1108:	1807a703          	lw	a4,384(a5)
    110c:	00176713          	ori	a4,a4,1
    1110:	18e7a023          	sw	a4,384(a5)
    1114:	8536                	mv	a0,a3
    1116:	8082                	ret
    1118:	4681                	li	a3,0
    111a:	bfbd                	j	1098 <CAN_Transmit+0x22>
    111c:	4685                	li	a3,1
    111e:	bfad                	j	1098 <CAN_Transmit+0x22>
    1120:	41d8                	lw	a4,4(a1)
    1122:	1807a803          	lw	a6,384(a5)
    1126:	070e                	slli	a4,a4,0x3
    1128:	8f49                	or	a4,a4,a0
    112a:	8f51                	or	a4,a4,a2
    112c:	01076733          	or	a4,a4,a6
    1130:	b769                	j	10ba <CAN_Transmit+0x44>

00001132 <CAN_TransmitStatus>:
    1132:	4785                	li	a5,1
    1134:	02f58963          	beq	a1,a5,1166 <CAN_TransmitStatus+0x34>
    1138:	c591                	beqz	a1,1144 <CAN_TransmitStatus+0x12>
    113a:	4789                	li	a5,2
    113c:	02f58b63          	beq	a1,a5,1172 <CAN_TransmitStatus+0x40>
    1140:	4509                	li	a0,2
    1142:	8082                	ret
    1144:	451c                	lw	a5,8(a0)
    1146:	04000537          	lui	a0,0x4000
    114a:	050d                	addi	a0,a0,3
    114c:	04000737          	lui	a4,0x4000
    1150:	8fe9                	and	a5,a5,a0
    1152:	070d                	addi	a4,a4,3
    1154:	4505                	li	a0,1
    1156:	02e78e63          	beq	a5,a4,1192 <CAN_TransmitStatus+0x60>
    115a:	02f76063          	bltu	a4,a5,117a <CAN_TransmitStatus+0x48>
    115e:	0017b513          	seqz	a0,a5
    1162:	0506                	slli	a0,a0,0x1
    1164:	8082                	ret
    1166:	451c                	lw	a5,8(a0)
    1168:	08000537          	lui	a0,0x8000
    116c:	30050513          	addi	a0,a0,768 # 8000300 <_data_lma+0x7ffbd8c>
    1170:	bff1                	j	114c <CAN_TransmitStatus+0x1a>
    1172:	451c                	lw	a5,8(a0)
    1174:	10030537          	lui	a0,0x10030
    1178:	bfd1                	j	114c <CAN_TransmitStatus+0x1a>
    117a:	08000737          	lui	a4,0x8000
    117e:	30070713          	addi	a4,a4,768 # 8000300 <_data_lma+0x7ffbd8c>
    1182:	4505                	li	a0,1
    1184:	00e78763          	beq	a5,a4,1192 <CAN_TransmitStatus+0x60>
    1188:	10030537          	lui	a0,0x10030
    118c:	8f89                	sub	a5,a5,a0
    118e:	0017b513          	seqz	a0,a5
    1192:	8082                	ret

00001194 <DBGMCU_GetCHIPID>:
    1194:	1ffff7b7          	lui	a5,0x1ffff
    1198:	7047a503          	lw	a0,1796(a5) # 1ffff704 <_data_lma+0x1fffb190>
    119c:	8082                	ret

0000119e <DMA_DeInit>:
    119e:	411c                	lw	a5,0(a0)
    11a0:	6741                	lui	a4,0x10
    11a2:	1779                	addi	a4,a4,-2
    11a4:	8ff9                	and	a5,a5,a4
    11a6:	c11c                	sw	a5,0(a0)
    11a8:	00052023          	sw	zero,0(a0) # 10030000 <_data_lma+0x1002ba8c>
    11ac:	00052223          	sw	zero,4(a0)
    11b0:	00052423          	sw	zero,8(a0)
    11b4:	400207b7          	lui	a5,0x40020
    11b8:	00052623          	sw	zero,12(a0)
    11bc:	00878713          	addi	a4,a5,8 # 40020008 <__freertos_irq_stack_top+0x20010008>
    11c0:	00e51763          	bne	a0,a4,11ce <DMA_DeInit+0x30>
    11c4:	43d8                	lw	a4,4(a5)
    11c6:	00f76713          	ori	a4,a4,15
    11ca:	c3d8                	sw	a4,4(a5)
    11cc:	8082                	ret
    11ce:	01c78713          	addi	a4,a5,28
    11d2:	00e51663          	bne	a0,a4,11de <DMA_DeInit+0x40>
    11d6:	43d8                	lw	a4,4(a5)
    11d8:	0f076713          	ori	a4,a4,240
    11dc:	b7fd                	j	11ca <DMA_DeInit+0x2c>
    11de:	03078713          	addi	a4,a5,48
    11e2:	00e51863          	bne	a0,a4,11f2 <DMA_DeInit+0x54>
    11e6:	43d8                	lw	a4,4(a5)
    11e8:	6685                	lui	a3,0x1
    11ea:	f0068693          	addi	a3,a3,-256 # f00 <CAN_Init+0x60>
    11ee:	8f55                	or	a4,a4,a3
    11f0:	bfe9                	j	11ca <DMA_DeInit+0x2c>
    11f2:	04478713          	addi	a4,a5,68
    11f6:	00e51563          	bne	a0,a4,1200 <DMA_DeInit+0x62>
    11fa:	43d8                	lw	a4,4(a5)
    11fc:	66bd                	lui	a3,0xf
    11fe:	bfc5                	j	11ee <DMA_DeInit+0x50>
    1200:	05878713          	addi	a4,a5,88
    1204:	00e51663          	bne	a0,a4,1210 <DMA_DeInit+0x72>
    1208:	43d8                	lw	a4,4(a5)
    120a:	000f06b7          	lui	a3,0xf0
    120e:	b7c5                	j	11ee <DMA_DeInit+0x50>
    1210:	06c78713          	addi	a4,a5,108
    1214:	00e51663          	bne	a0,a4,1220 <DMA_DeInit+0x82>
    1218:	43d8                	lw	a4,4(a5)
    121a:	00f006b7          	lui	a3,0xf00
    121e:	bfc1                	j	11ee <DMA_DeInit+0x50>
    1220:	08078713          	addi	a4,a5,128
    1224:	00e51663          	bne	a0,a4,1230 <DMA_DeInit+0x92>
    1228:	43d8                	lw	a4,4(a5)
    122a:	0f0006b7          	lui	a3,0xf000
    122e:	b7c1                	j	11ee <DMA_DeInit+0x50>
    1230:	40878713          	addi	a4,a5,1032
    1234:	00e51963          	bne	a0,a4,1246 <DMA_DeInit+0xa8>
    1238:	4047a703          	lw	a4,1028(a5)
    123c:	00f76713          	ori	a4,a4,15
    1240:	40e7a223          	sw	a4,1028(a5)
    1244:	8082                	ret
    1246:	41c78713          	addi	a4,a5,1052
    124a:	00e51763          	bne	a0,a4,1258 <DMA_DeInit+0xba>
    124e:	4047a703          	lw	a4,1028(a5)
    1252:	0f076713          	ori	a4,a4,240
    1256:	b7ed                	j	1240 <DMA_DeInit+0xa2>
    1258:	43078793          	addi	a5,a5,1072
    125c:	00f51b63          	bne	a0,a5,1272 <DMA_DeInit+0xd4>
    1260:	400207b7          	lui	a5,0x40020
    1264:	4047a703          	lw	a4,1028(a5) # 40020404 <__freertos_irq_stack_top+0x20010404>
    1268:	6685                	lui	a3,0x1
    126a:	f0068693          	addi	a3,a3,-256 # f00 <CAN_Init+0x60>
    126e:	8f55                	or	a4,a4,a3
    1270:	bfc1                	j	1240 <DMA_DeInit+0xa2>
    1272:	400207b7          	lui	a5,0x40020
    1276:	44478713          	addi	a4,a5,1092 # 40020444 <__freertos_irq_stack_top+0x20010444>
    127a:	00e51663          	bne	a0,a4,1286 <DMA_DeInit+0xe8>
    127e:	4047a703          	lw	a4,1028(a5)
    1282:	66bd                	lui	a3,0xf
    1284:	b7ed                	j	126e <DMA_DeInit+0xd0>
    1286:	45878713          	addi	a4,a5,1112
    128a:	00e51763          	bne	a0,a4,1298 <DMA_DeInit+0xfa>
    128e:	4047a703          	lw	a4,1028(a5)
    1292:	000f06b7          	lui	a3,0xf0
    1296:	bfe1                	j	126e <DMA_DeInit+0xd0>
    1298:	46c78713          	addi	a4,a5,1132
    129c:	00e51763          	bne	a0,a4,12aa <DMA_DeInit+0x10c>
    12a0:	4047a703          	lw	a4,1028(a5)
    12a4:	00f006b7          	lui	a3,0xf00
    12a8:	b7d9                	j	126e <DMA_DeInit+0xd0>
    12aa:	48078713          	addi	a4,a5,1152
    12ae:	00e51763          	bne	a0,a4,12bc <DMA_DeInit+0x11e>
    12b2:	4047a703          	lw	a4,1028(a5)
    12b6:	0f0006b7          	lui	a3,0xf000
    12ba:	bf55                	j	126e <DMA_DeInit+0xd0>
    12bc:	49078713          	addi	a4,a5,1168
    12c0:	00e51963          	bne	a0,a4,12d2 <DMA_DeInit+0x134>
    12c4:	4d47a703          	lw	a4,1236(a5)
    12c8:	00f76713          	ori	a4,a4,15
    12cc:	4ce7aa23          	sw	a4,1236(a5)
    12d0:	8082                	ret
    12d2:	4a078713          	addi	a4,a5,1184
    12d6:	00e51763          	bne	a0,a4,12e4 <DMA_DeInit+0x146>
    12da:	4d47a703          	lw	a4,1236(a5)
    12de:	0f076713          	ori	a4,a4,240
    12e2:	b7ed                	j	12cc <DMA_DeInit+0x12e>
    12e4:	4b078713          	addi	a4,a5,1200
    12e8:	00e51963          	bne	a0,a4,12fa <DMA_DeInit+0x15c>
    12ec:	4d47a703          	lw	a4,1236(a5)
    12f0:	6685                	lui	a3,0x1
    12f2:	f0068693          	addi	a3,a3,-256 # f00 <CAN_Init+0x60>
    12f6:	8f55                	or	a4,a4,a3
    12f8:	bfd1                	j	12cc <DMA_DeInit+0x12e>
    12fa:	4c078713          	addi	a4,a5,1216
    12fe:	fce519e3          	bne	a0,a4,12d0 <DMA_DeInit+0x132>
    1302:	4d47a703          	lw	a4,1236(a5)
    1306:	66bd                	lui	a3,0xf
    1308:	b7fd                	j	12f6 <DMA_DeInit+0x158>

0000130a <DMA_Init>:
    130a:	411c                	lw	a5,0(a0)
    130c:	7761                	lui	a4,0xffff8
    130e:	073d                	addi	a4,a4,15
    1310:	5194                	lw	a3,32(a1)
    1312:	8f7d                	and	a4,a4,a5
    1314:	459c                	lw	a5,8(a1)
    1316:	8fd5                	or	a5,a5,a3
    1318:	4994                	lw	a3,16(a1)
    131a:	8fd5                	or	a5,a5,a3
    131c:	49d4                	lw	a3,20(a1)
    131e:	8fd5                	or	a5,a5,a3
    1320:	4d94                	lw	a3,24(a1)
    1322:	8fd5                	or	a5,a5,a3
    1324:	4dd4                	lw	a3,28(a1)
    1326:	8fd5                	or	a5,a5,a3
    1328:	51d4                	lw	a3,36(a1)
    132a:	8fd5                	or	a5,a5,a3
    132c:	5594                	lw	a3,40(a1)
    132e:	8fd5                	or	a5,a5,a3
    1330:	8fd9                	or	a5,a5,a4
    1332:	c11c                	sw	a5,0(a0)
    1334:	45dc                	lw	a5,12(a1)
    1336:	c15c                	sw	a5,4(a0)
    1338:	419c                	lw	a5,0(a1)
    133a:	c51c                	sw	a5,8(a0)
    133c:	41dc                	lw	a5,4(a1)
    133e:	c55c                	sw	a5,12(a0)
    1340:	8082                	ret

00001342 <DMA_Cmd>:
    1342:	411c                	lw	a5,0(a0)
    1344:	c589                	beqz	a1,134e <DMA_Cmd+0xc>
    1346:	0017e793          	ori	a5,a5,1
    134a:	c11c                	sw	a5,0(a0)
    134c:	8082                	ret
    134e:	6741                	lui	a4,0x10
    1350:	1779                	addi	a4,a4,-2
    1352:	8ff9                	and	a5,a5,a4
    1354:	bfdd                	j	134a <DMA_Cmd+0x8>

00001356 <DMA_ITConfig>:
    1356:	411c                	lw	a5,0(a0)
    1358:	c601                	beqz	a2,1360 <DMA_ITConfig+0xa>
    135a:	8ddd                	or	a1,a1,a5
    135c:	c10c                	sw	a1,0(a0)
    135e:	8082                	ret
    1360:	fff5c593          	not	a1,a1
    1364:	8dfd                	and	a1,a1,a5
    1366:	bfdd                	j	135c <DMA_ITConfig+0x6>

00001368 <DMA_SetCurrDataCounter>:
    1368:	c14c                	sw	a1,4(a0)
    136a:	8082                	ret

0000136c <DMA_ClearFlag>:
    136c:	00351793          	slli	a5,a0,0x3
    1370:	0007d763          	bgez	a5,137e <DMA_ClearFlag+0x12>
    1374:	400207b7          	lui	a5,0x40020
    1378:	40a7a223          	sw	a0,1028(a5) # 40020404 <__freertos_irq_stack_top+0x20010404>
    137c:	8082                	ret
    137e:	00251793          	slli	a5,a0,0x2
    1382:	0007d763          	bgez	a5,1390 <DMA_ClearFlag+0x24>
    1386:	400207b7          	lui	a5,0x40020
    138a:	4ca7aa23          	sw	a0,1236(a5) # 400204d4 <__freertos_irq_stack_top+0x200104d4>
    138e:	8082                	ret
    1390:	400207b7          	lui	a5,0x40020
    1394:	c3c8                	sw	a0,4(a5)
    1396:	8082                	ret

00001398 <DMA_ClearITPendingBit>:
    1398:	97eff2ef          	jal	t0,516 <__riscv_save_0>
    139c:	3fc1                	jal	136c <DMA_ClearFlag>
    139e:	99cff06f          	j	53a <__riscv_restore_0>

000013a2 <GPIO_Init>:
    13a2:	459c                	lw	a5,8(a1)
    13a4:	0107f713          	andi	a4,a5,16
    13a8:	00f7f813          	andi	a6,a5,15
    13ac:	c701                	beqz	a4,13b4 <GPIO_Init+0x12>
    13ae:	41d8                	lw	a4,4(a1)
    13b0:	00e86833          	or	a6,a6,a4
    13b4:	218e                	lhu	a1,0(a1)
    13b6:	0ff5f713          	andi	a4,a1,255
    13ba:	c339                	beqz	a4,1400 <GPIO_Init+0x5e>
    13bc:	4118                	lw	a4,0(a0)
    13be:	4681                	li	a3,0
    13c0:	4e85                	li	t4,1
    13c2:	4f3d                	li	t5,15
    13c4:	02800f93          	li	t6,40
    13c8:	04800293          	li	t0,72
    13cc:	4e21                	li	t3,8
    13ce:	00de9633          	sll	a2,t4,a3
    13d2:	00c5f8b3          	and	a7,a1,a2
    13d6:	03161163          	bne	a2,a7,13f8 <GPIO_Init+0x56>
    13da:	00269893          	slli	a7,a3,0x2
    13de:	011f1333          	sll	t1,t5,a7
    13e2:	fff34313          	not	t1,t1
    13e6:	00e37733          	and	a4,t1,a4
    13ea:	011818b3          	sll	a7,a6,a7
    13ee:	00e8e733          	or	a4,a7,a4
    13f2:	05f79f63          	bne	a5,t6,1450 <GPIO_Init+0xae>
    13f6:	c950                	sw	a2,20(a0)
    13f8:	0685                	addi	a3,a3,1
    13fa:	fdc69ae3          	bne	a3,t3,13ce <GPIO_Init+0x2c>
    13fe:	c118                	sw	a4,0(a0)
    1400:	0ff00713          	li	a4,255
    1404:	04b77563          	bgeu	a4,a1,144e <GPIO_Init+0xac>
    1408:	4154                	lw	a3,4(a0)
    140a:	4621                	li	a2,8
    140c:	4e85                	li	t4,1
    140e:	4f3d                	li	t5,15
    1410:	02800f93          	li	t6,40
    1414:	04800293          	li	t0,72
    1418:	4e41                	li	t3,16
    141a:	00ce98b3          	sll	a7,t4,a2
    141e:	0115f733          	and	a4,a1,a7
    1422:	02e89263          	bne	a7,a4,1446 <GPIO_Init+0xa4>
    1426:	00261713          	slli	a4,a2,0x2
    142a:	1701                	addi	a4,a4,-32
    142c:	00ef1333          	sll	t1,t5,a4
    1430:	fff34313          	not	t1,t1
    1434:	00d376b3          	and	a3,t1,a3
    1438:	00e81733          	sll	a4,a6,a4
    143c:	8ed9                	or	a3,a3,a4
    143e:	01f79d63          	bne	a5,t6,1458 <GPIO_Init+0xb6>
    1442:	01152a23          	sw	a7,20(a0)
    1446:	0605                	addi	a2,a2,1
    1448:	fdc619e3          	bne	a2,t3,141a <GPIO_Init+0x78>
    144c:	c154                	sw	a3,4(a0)
    144e:	8082                	ret
    1450:	fa5794e3          	bne	a5,t0,13f8 <GPIO_Init+0x56>
    1454:	c910                	sw	a2,16(a0)
    1456:	b74d                	j	13f8 <GPIO_Init+0x56>
    1458:	fe5797e3          	bne	a5,t0,1446 <GPIO_Init+0xa4>
    145c:	01152823          	sw	a7,16(a0)
    1460:	b7dd                	j	1446 <GPIO_Init+0xa4>

00001462 <GPIO_PinRemapConfig>:
    1462:	400107b7          	lui	a5,0x40010
    1466:	04055a63          	bgez	a0,14ba <GPIO_PinRemapConfig+0x58>
    146a:	4fdc                	lw	a5,28(a5)
    146c:	01055693          	srli	a3,a0,0x10
    1470:	01051813          	slli	a6,a0,0x10
    1474:	00300737          	lui	a4,0x300
    1478:	00f6f613          	andi	a2,a3,15
    147c:	01085813          	srli	a6,a6,0x10
    1480:	00e576b3          	and	a3,a0,a4
    1484:	06055063          	bgez	a0,14e4 <GPIO_PinRemapConfig+0x82>
    1488:	02e69b63          	bne	a3,a4,14be <GPIO_PinRemapConfig+0x5c>
    148c:	01060693          	addi	a3,a2,16 # 10010 <_data_lma+0xba9c>
    1490:	460d                	li	a2,3
    1492:	00d616b3          	sll	a3,a2,a3
    1496:	fff6c693          	not	a3,a3
    149a:	8ff5                	and	a5,a5,a3
    149c:	c999                	beqz	a1,14b2 <GPIO_PinRemapConfig+0x50>
    149e:	01555713          	srli	a4,a0,0x15
    14a2:	3ff77713          	andi	a4,a4,1023
    14a6:	0712                	slli	a4,a4,0x4
    14a8:	00e81733          	sll	a4,a6,a4
    14ac:	8fd9                	or	a5,a5,a4
    14ae:	04055763          	bgez	a0,14fc <GPIO_PinRemapConfig+0x9a>
    14b2:	40010737          	lui	a4,0x40010
    14b6:	cf5c                	sw	a5,28(a4)
    14b8:	8082                	ret
    14ba:	43dc                	lw	a5,4(a5)
    14bc:	bf45                	j	146c <GPIO_PinRemapConfig+0xa>
    14be:	00b51713          	slli	a4,a0,0xb
    14c2:	00075663          	bgez	a4,14ce <GPIO_PinRemapConfig+0x6c>
    14c6:	468d                	li	a3,3
    14c8:	00c696b3          	sll	a3,a3,a2
    14cc:	b7e9                	j	1496 <GPIO_PinRemapConfig+0x34>
    14ce:	01555713          	srli	a4,a0,0x15
    14d2:	3ff77713          	andi	a4,a4,1023
    14d6:	0712                	slli	a4,a4,0x4
    14d8:	00e81733          	sll	a4,a6,a4
    14dc:	fff74713          	not	a4,a4
    14e0:	8ff9                	and	a5,a5,a4
    14e2:	bf6d                	j	149c <GPIO_PinRemapConfig+0x3a>
    14e4:	02e69063          	bne	a3,a4,1504 <GPIO_PinRemapConfig+0xa2>
    14e8:	40010637          	lui	a2,0x40010
    14ec:	4254                	lw	a3,4(a2)
    14ee:	f1000737          	lui	a4,0xf1000
    14f2:	177d                	addi	a4,a4,-1
    14f4:	8ff9                	and	a5,a5,a4
    14f6:	8f75                	and	a4,a4,a3
    14f8:	c258                	sw	a4,4(a2)
    14fa:	f1d5                	bnez	a1,149e <GPIO_PinRemapConfig+0x3c>
    14fc:	40010737          	lui	a4,0x40010
    1500:	c35c                	sw	a5,4(a4)
    1502:	8082                	ret
    1504:	00b51713          	slli	a4,a0,0xb
    1508:	00075c63          	bgez	a4,1520 <GPIO_PinRemapConfig+0xbe>
    150c:	468d                	li	a3,3
    150e:	00c696b3          	sll	a3,a3,a2
    1512:	fff6c693          	not	a3,a3
    1516:	8efd                	and	a3,a3,a5
    1518:	0f0007b7          	lui	a5,0xf000
    151c:	8fd5                	or	a5,a5,a3
    151e:	bff1                	j	14fa <GPIO_PinRemapConfig+0x98>
    1520:	01555713          	srli	a4,a0,0x15
    1524:	0712                	slli	a4,a4,0x4
    1526:	00e81733          	sll	a4,a6,a4
    152a:	fff74713          	not	a4,a4
    152e:	8f7d                	and	a4,a4,a5
    1530:	0f0007b7          	lui	a5,0xf000
    1534:	8fd9                	or	a5,a5,a4
    1536:	b7d1                	j	14fa <GPIO_PinRemapConfig+0x98>

00001538 <NVIC_PriorityGroupConfig>:
    1538:	200007b7          	lui	a5,0x20000
    153c:	0aa7a423          	sw	a0,168(a5) # 200000a8 <NVIC_Priority_Group>
    1540:	8082                	ret

00001542 <NVIC_Init>:
    1542:	200007b7          	lui	a5,0x20000
    1546:	0a87a703          	lw	a4,168(a5) # 200000a8 <NVIC_Priority_Group>
    154a:	4789                	li	a5,2
    154c:	2110                	lbu	a2,0(a0)
    154e:	02f71163          	bne	a4,a5,1570 <NVIC_Init+0x2e>
    1552:	3114                	lbu	a3,1(a0)
    1554:	478d                	li	a5,3
    1556:	00d7ed63          	bltu	a5,a3,1570 <NVIC_Init+0x2e>
    155a:	213c                	lbu	a5,2(a0)
    155c:	069a                	slli	a3,a3,0x6
    155e:	e000e737          	lui	a4,0xe000e
    1562:	0796                	slli	a5,a5,0x5
    1564:	8fd5                	or	a5,a5,a3
    1566:	0ff7f793          	andi	a5,a5,255
    156a:	9732                	add	a4,a4,a2
    156c:	40f70023          	sb	a5,1024(a4) # e000e400 <__freertos_irq_stack_top+0xbfffe400>
    1570:	4154                	lw	a3,4(a0)
    1572:	4705                	li	a4,1
    1574:	00565793          	srli	a5,a2,0x5
    1578:	00c71733          	sll	a4,a4,a2
    157c:	ca89                	beqz	a3,158e <NVIC_Init+0x4c>
    157e:	04078793          	addi	a5,a5,64
    1582:	078a                	slli	a5,a5,0x2
    1584:	e000e6b7          	lui	a3,0xe000e
    1588:	97b6                	add	a5,a5,a3
    158a:	c398                	sw	a4,0(a5)
    158c:	8082                	ret
    158e:	06078793          	addi	a5,a5,96
    1592:	bfc5                	j	1582 <NVIC_Init+0x40>

00001594 <RCC_GetClocksFreq>:
    1594:	40021737          	lui	a4,0x40021
    1598:	435c                	lw	a5,4(a4)
    159a:	4691                	li	a3,4
    159c:	8bb1                	andi	a5,a5,12
    159e:	00d78563          	beq	a5,a3,15a8 <RCC_GetClocksFreq+0x14>
    15a2:	46a1                	li	a3,8
    15a4:	06d78263          	beq	a5,a3,1608 <RCC_GetClocksFreq+0x74>
    15a8:	007a17b7          	lui	a5,0x7a1
    15ac:	20078793          	addi	a5,a5,512 # 7a1200 <_data_lma+0x79cc8c>
    15b0:	c11c                	sw	a5,0(a0)
    15b2:	40021637          	lui	a2,0x40021
    15b6:	425c                	lw	a5,4(a2)
    15b8:	20000737          	lui	a4,0x20000
    15bc:	01070713          	addi	a4,a4,16 # 20000010 <APBAHBPrescTable>
    15c0:	8391                	srli	a5,a5,0x4
    15c2:	8bbd                	andi	a5,a5,15
    15c4:	97ba                	add	a5,a5,a4
    15c6:	2394                	lbu	a3,0(a5)
    15c8:	411c                	lw	a5,0(a0)
    15ca:	00d7d7b3          	srl	a5,a5,a3
    15ce:	c15c                	sw	a5,4(a0)
    15d0:	4254                	lw	a3,4(a2)
    15d2:	82a1                	srli	a3,a3,0x8
    15d4:	8a9d                	andi	a3,a3,7
    15d6:	96ba                	add	a3,a3,a4
    15d8:	2294                	lbu	a3,0(a3)
    15da:	00d7d6b3          	srl	a3,a5,a3
    15de:	c514                	sw	a3,8(a0)
    15e0:	4254                	lw	a3,4(a2)
    15e2:	82ad                	srli	a3,a3,0xb
    15e4:	8a9d                	andi	a3,a3,7
    15e6:	9736                	add	a4,a4,a3
    15e8:	2318                	lbu	a4,0(a4)
    15ea:	00e7d7b3          	srl	a5,a5,a4
    15ee:	c55c                	sw	a5,12(a0)
    15f0:	4258                	lw	a4,4(a2)
    15f2:	8339                	srli	a4,a4,0xe
    15f4:	00377693          	andi	a3,a4,3
    15f8:	80418713          	addi	a4,gp,-2044 # 20000084 <ADCPrescTable>
    15fc:	9736                	add	a4,a4,a3
    15fe:	2318                	lbu	a4,0(a4)
    1600:	02e7d7b3          	divu	a5,a5,a4
    1604:	c91c                	sw	a5,16(a0)
    1606:	8082                	ret
    1608:	435c                	lw	a5,4(a4)
    160a:	4358                	lw	a4,4(a4)
    160c:	66c1                	lui	a3,0x10
    160e:	83c9                	srli	a5,a5,0x12
    1610:	8f75                	and	a4,a4,a3
    1612:	1ffff6b7          	lui	a3,0x1ffff
    1616:	70c6a683          	lw	a3,1804(a3) # 1ffff70c <_data_lma+0x1fffb198>
    161a:	8bbd                	andi	a5,a5,15
    161c:	0789                	addi	a5,a5,2
    161e:	01169613          	slli	a2,a3,0x11
    1622:	00064863          	bltz	a2,1632 <RCC_GetClocksFreq+0x9e>
    1626:	46c5                	li	a3,17
    1628:	4601                	li	a2,0
    162a:	02d79263          	bne	a5,a3,164e <RCC_GetClocksFreq+0xba>
    162e:	47c9                	li	a5,18
    1630:	a839                	j	164e <RCC_GetClocksFreq+0xba>
    1632:	4689                	li	a3,2
    1634:	02d78f63          	beq	a5,a3,1672 <RCC_GetClocksFreq+0xde>
    1638:	46bd                	li	a3,15
    163a:	02d78e63          	beq	a5,a3,1676 <RCC_GetClocksFreq+0xe2>
    163e:	46c1                	li	a3,16
    1640:	02d78e63          	beq	a5,a3,167c <RCC_GetClocksFreq+0xe8>
    1644:	46c5                	li	a3,17
    1646:	4601                	li	a2,0
    1648:	00d79363          	bne	a5,a3,164e <RCC_GetClocksFreq+0xba>
    164c:	47c1                	li	a5,16
    164e:	ef1d                	bnez	a4,168c <RCC_GetClocksFreq+0xf8>
    1650:	40024737          	lui	a4,0x40024
    1654:	80072703          	lw	a4,-2048(a4) # 40023800 <__freertos_irq_stack_top+0x20013800>
    1658:	8b41                	andi	a4,a4,16
    165a:	c705                	beqz	a4,1682 <RCC_GetClocksFreq+0xee>
    165c:	007a1737          	lui	a4,0x7a1
    1660:	20070713          	addi	a4,a4,512 # 7a1200 <_data_lma+0x79cc8c>
    1664:	02f707b3          	mul	a5,a4,a5
    1668:	c11c                	sw	a5,0(a0)
    166a:	d621                	beqz	a2,15b2 <RCC_GetClocksFreq+0x1e>
    166c:	411c                	lw	a5,0(a0)
    166e:	8385                	srli	a5,a5,0x1
    1670:	b781                	j	15b0 <RCC_GetClocksFreq+0x1c>
    1672:	4601                	li	a2,0
    1674:	bf6d                	j	162e <RCC_GetClocksFreq+0x9a>
    1676:	4605                	li	a2,1
    1678:	47b5                	li	a5,13
    167a:	bfd1                	j	164e <RCC_GetClocksFreq+0xba>
    167c:	4601                	li	a2,0
    167e:	47bd                	li	a5,15
    1680:	b7f9                	j	164e <RCC_GetClocksFreq+0xba>
    1682:	003d1737          	lui	a4,0x3d1
    1686:	90070713          	addi	a4,a4,-1792 # 3d0900 <_data_lma+0x3cc38c>
    168a:	bfe9                	j	1664 <RCC_GetClocksFreq+0xd0>
    168c:	400215b7          	lui	a1,0x40021
    1690:	55d8                	lw	a4,44(a1)
    1692:	00f71693          	slli	a3,a4,0xf
    1696:	55d8                	lw	a4,44(a1)
    1698:	0406df63          	bgez	a3,16f6 <RCC_GetClocksFreq+0x162>
    169c:	8311                	srli	a4,a4,0x4
    169e:	8b3d                	andi	a4,a4,15
    16a0:	00170693          	addi	a3,a4,1
    16a4:	007a1737          	lui	a4,0x7a1
    16a8:	20070713          	addi	a4,a4,512 # 7a1200 <_data_lma+0x79cc8c>
    16ac:	02d75733          	divu	a4,a4,a3
    16b0:	c118                	sw	a4,0(a0)
    16b2:	55d4                	lw	a3,44(a1)
    16b4:	82a1                	srli	a3,a3,0x8
    16b6:	8abd                	andi	a3,a3,15
    16b8:	e28d                	bnez	a3,16da <RCC_GetClocksFreq+0x146>
    16ba:	4695                	li	a3,5
    16bc:	02d70733          	mul	a4,a4,a3
    16c0:	8305                	srli	a4,a4,0x1
    16c2:	c118                	sw	a4,0(a0)
    16c4:	40021737          	lui	a4,0x40021
    16c8:	5758                	lw	a4,44(a4)
    16ca:	4114                	lw	a3,0(a0)
    16cc:	8b3d                	andi	a4,a4,15
    16ce:	0705                	addi	a4,a4,1
    16d0:	02e6d733          	divu	a4,a3,a4
    16d4:	c118                	sw	a4,0(a0)
    16d6:	4118                	lw	a4,0(a0)
    16d8:	b771                	j	1664 <RCC_GetClocksFreq+0xd0>
    16da:	4585                	li	a1,1
    16dc:	00b69463          	bne	a3,a1,16e4 <RCC_GetClocksFreq+0x150>
    16e0:	46e5                	li	a3,25
    16e2:	bfe9                	j	16bc <RCC_GetClocksFreq+0x128>
    16e4:	45bd                	li	a1,15
    16e6:	00b69663          	bne	a3,a1,16f2 <RCC_GetClocksFreq+0x15e>
    16ea:	46d1                	li	a3,20
    16ec:	02e68733          	mul	a4,a3,a4
    16f0:	bfc9                	j	16c2 <RCC_GetClocksFreq+0x12e>
    16f2:	0689                	addi	a3,a3,2
    16f4:	bfe5                	j	16ec <RCC_GetClocksFreq+0x158>
    16f6:	8b3d                	andi	a4,a4,15
    16f8:	00170693          	addi	a3,a4,1 # 40021001 <__freertos_irq_stack_top+0x20011001>
    16fc:	007a1737          	lui	a4,0x7a1
    1700:	20070713          	addi	a4,a4,512 # 7a1200 <_data_lma+0x79cc8c>
    1704:	02d75733          	divu	a4,a4,a3
    1708:	b7f1                	j	16d4 <RCC_GetClocksFreq+0x140>

0000170a <RCC_AHBPeriphClockCmd>:
    170a:	c599                	beqz	a1,1718 <RCC_AHBPeriphClockCmd+0xe>
    170c:	40021737          	lui	a4,0x40021
    1710:	4b5c                	lw	a5,20(a4)
    1712:	8d5d                	or	a0,a0,a5
    1714:	cb48                	sw	a0,20(a4)
    1716:	8082                	ret
    1718:	400217b7          	lui	a5,0x40021
    171c:	4bd8                	lw	a4,20(a5)
    171e:	fff54513          	not	a0,a0
    1722:	8d79                	and	a0,a0,a4
    1724:	cbc8                	sw	a0,20(a5)
    1726:	8082                	ret

00001728 <RCC_APB2PeriphClockCmd>:
    1728:	c599                	beqz	a1,1736 <RCC_APB2PeriphClockCmd+0xe>
    172a:	40021737          	lui	a4,0x40021
    172e:	4f1c                	lw	a5,24(a4)
    1730:	8d5d                	or	a0,a0,a5
    1732:	cf08                	sw	a0,24(a4)
    1734:	8082                	ret
    1736:	400217b7          	lui	a5,0x40021
    173a:	4f98                	lw	a4,24(a5)
    173c:	fff54513          	not	a0,a0
    1740:	8d79                	and	a0,a0,a4
    1742:	cf88                	sw	a0,24(a5)
    1744:	8082                	ret

00001746 <RCC_APB1PeriphClockCmd>:
    1746:	c599                	beqz	a1,1754 <RCC_APB1PeriphClockCmd+0xe>
    1748:	40021737          	lui	a4,0x40021
    174c:	4f5c                	lw	a5,28(a4)
    174e:	8d5d                	or	a0,a0,a5
    1750:	cf48                	sw	a0,28(a4)
    1752:	8082                	ret
    1754:	400217b7          	lui	a5,0x40021
    1758:	4fd8                	lw	a4,28(a5)
    175a:	fff54513          	not	a0,a0
    175e:	8d79                	and	a0,a0,a4
    1760:	cfc8                	sw	a0,28(a5)
    1762:	8082                	ret

00001764 <USART_Init>:
    1764:	db3fe2ef          	jal	t0,516 <__riscv_save_0>
    1768:	2916                	lhu	a3,16(a0)
    176a:	77f5                	lui	a5,0xffffd
    176c:	17fd                	addi	a5,a5,-1
    176e:	8ff5                	and	a5,a5,a3
    1770:	21f6                	lhu	a3,6(a1)
    1772:	25da                	lhu	a4,12(a1)
    1774:	7179                	addi	sp,sp,-48
    1776:	8fd5                	or	a5,a5,a3
    1778:	a91e                	sh	a5,16(a0)
    177a:	2556                	lhu	a3,12(a0)
    177c:	77fd                	lui	a5,0xfffff
    177e:	9f378793          	addi	a5,a5,-1549 # ffffe9f3 <__freertos_irq_stack_top+0xdffee9f3>
    1782:	8ff5                	and	a5,a5,a3
    1784:	21d6                	lhu	a3,4(a1)
    1786:	842a                	mv	s0,a0
    1788:	c62e                	sw	a1,12(sp)
    178a:	8fd5                	or	a5,a5,a3
    178c:	2596                	lhu	a3,8(a1)
    178e:	8fd5                	or	a5,a5,a3
    1790:	25b6                	lhu	a3,10(a1)
    1792:	8fd5                	or	a5,a5,a3
    1794:	a55e                	sh	a5,12(a0)
    1796:	295e                	lhu	a5,20(a0)
    1798:	07c2                	slli	a5,a5,0x10
    179a:	83c1                	srli	a5,a5,0x10
    179c:	cff7f793          	andi	a5,a5,-769
    17a0:	8fd9                	or	a5,a5,a4
    17a2:	a95e                	sh	a5,20(a0)
    17a4:	0868                	addi	a0,sp,28
    17a6:	33fd                	jal	1594 <RCC_GetClocksFreq>
    17a8:	400147b7          	lui	a5,0x40014
    17ac:	80078793          	addi	a5,a5,-2048 # 40013800 <__freertos_irq_stack_top+0x20003800>
    17b0:	45b2                	lw	a1,12(sp)
    17b2:	02f41e63          	bne	s0,a5,17ee <USART_Init+0x8a>
    17b6:	57a2                	lw	a5,40(sp)
    17b8:	4765                	li	a4,25
    17ba:	02e787b3          	mul	a5,a5,a4
    17be:	4198                	lw	a4,0(a1)
    17c0:	06400693          	li	a3,100
    17c4:	070a                	slli	a4,a4,0x2
    17c6:	02e7d7b3          	divu	a5,a5,a4
    17ca:	02d7d733          	divu	a4,a5,a3
    17ce:	02d7f7b3          	remu	a5,a5,a3
    17d2:	0712                	slli	a4,a4,0x4
    17d4:	0792                	slli	a5,a5,0x4
    17d6:	03278793          	addi	a5,a5,50
    17da:	02d7d7b3          	divu	a5,a5,a3
    17de:	8bbd                	andi	a5,a5,15
    17e0:	8fd9                	or	a5,a5,a4
    17e2:	07c2                	slli	a5,a5,0x10
    17e4:	83c1                	srli	a5,a5,0x10
    17e6:	a41e                	sh	a5,8(s0)
    17e8:	6145                	addi	sp,sp,48
    17ea:	d51fe06f          	j	53a <__riscv_restore_0>
    17ee:	5792                	lw	a5,36(sp)
    17f0:	b7e1                	j	17b8 <USART_Init+0x54>

000017f2 <USART_Cmd>:
    17f2:	c591                	beqz	a1,17fe <USART_Cmd+0xc>
    17f4:	255e                	lhu	a5,12(a0)
    17f6:	6709                	lui	a4,0x2
    17f8:	8fd9                	or	a5,a5,a4
    17fa:	a55e                	sh	a5,12(a0)
    17fc:	8082                	ret
    17fe:	255a                	lhu	a4,12(a0)
    1800:	77f9                	lui	a5,0xffffe
    1802:	17fd                	addi	a5,a5,-1
    1804:	8ff9                	and	a5,a5,a4
    1806:	bfd5                	j	17fa <USART_Cmd+0x8>

00001808 <USART_ITConfig>:
    1808:	0ff5f713          	andi	a4,a1,255
    180c:	4785                	li	a5,1
    180e:	8315                	srli	a4,a4,0x5
    1810:	00b795b3          	sll	a1,a5,a1
    1814:	00f71963          	bne	a4,a5,1826 <USART_ITConfig+0x1e>
    1818:	00c50793          	addi	a5,a0,12
    181c:	4398                	lw	a4,0(a5)
    181e:	ce01                	beqz	a2,1836 <USART_ITConfig+0x2e>
    1820:	8dd9                	or	a1,a1,a4
    1822:	c38c                	sw	a1,0(a5)
    1824:	8082                	ret
    1826:	4689                	li	a3,2
    1828:	01450793          	addi	a5,a0,20
    182c:	fed718e3          	bne	a4,a3,181c <USART_ITConfig+0x14>
    1830:	01050793          	addi	a5,a0,16
    1834:	b7e5                	j	181c <USART_ITConfig+0x14>
    1836:	fff5c593          	not	a1,a1
    183a:	8df9                	and	a1,a1,a4
    183c:	b7dd                	j	1822 <USART_ITConfig+0x1a>

0000183e <USART_DMACmd>:
    183e:	295e                	lhu	a5,20(a0)
    1840:	c601                	beqz	a2,1848 <USART_DMACmd+0xa>
    1842:	8ddd                	or	a1,a1,a5
    1844:	a94e                	sh	a1,20(a0)
    1846:	8082                	ret
    1848:	fff5c593          	not	a1,a1
    184c:	8dfd                	and	a1,a1,a5
    184e:	bfdd                	j	1844 <USART_DMACmd+0x6>

00001850 <USART_SendData>:
    1850:	1ff5f593          	andi	a1,a1,511
    1854:	a14e                	sh	a1,4(a0)
    1856:	8082                	ret

00001858 <USART_ReceiveData>:
    1858:	214a                	lhu	a0,4(a0)
    185a:	1ff57513          	andi	a0,a0,511
    185e:	8082                	ret

00001860 <USART_GetFlagStatus>:
    1860:	210a                	lhu	a0,0(a0)
    1862:	8d6d                	and	a0,a0,a1
    1864:	00a03533          	snez	a0,a0
    1868:	8082                	ret

0000186a <USART_GetITStatus>:
    186a:	0ff5f713          	andi	a4,a1,255
    186e:	4685                	li	a3,1
    1870:	8315                	srli	a4,a4,0x5
    1872:	00b697b3          	sll	a5,a3,a1
    1876:	02d71163          	bne	a4,a3,1898 <USART_GetITStatus+0x2e>
    187a:	255a                	lhu	a4,12(a0)
    187c:	8ff9                	and	a5,a5,a4
    187e:	211a                	lhu	a4,0(a0)
    1880:	4501                	li	a0,0
    1882:	0742                	slli	a4,a4,0x10
    1884:	8341                	srli	a4,a4,0x10
    1886:	cb81                	beqz	a5,1896 <USART_GetITStatus+0x2c>
    1888:	4505                	li	a0,1
    188a:	81a1                	srli	a1,a1,0x8
    188c:	00b515b3          	sll	a1,a0,a1
    1890:	8f6d                	and	a4,a4,a1
    1892:	00e03533          	snez	a0,a4
    1896:	8082                	ret
    1898:	4689                	li	a3,2
    189a:	00d71463          	bne	a4,a3,18a2 <USART_GetITStatus+0x38>
    189e:	291a                	lhu	a4,16(a0)
    18a0:	bff1                	j	187c <USART_GetITStatus+0x12>
    18a2:	295a                	lhu	a4,20(a0)
    18a4:	bfe1                	j	187c <USART_GetITStatus+0x12>

000018a6 <prvInsertBlockIntoFreeList>:
    18a6:	200007b7          	lui	a5,0x20000
    18aa:	0c478793          	addi	a5,a5,196 # 200000c4 <xStart>
    18ae:	4398                	lw	a4,0(a5)
    18b0:	02a76f63          	bltu	a4,a0,18ee <prvInsertBlockIntoFreeList+0x48>
    18b4:	43d0                	lw	a2,4(a5)
    18b6:	00c786b3          	add	a3,a5,a2
    18ba:	00d51663          	bne	a0,a3,18c6 <prvInsertBlockIntoFreeList+0x20>
    18be:	4154                	lw	a3,4(a0)
    18c0:	853e                	mv	a0,a5
    18c2:	96b2                	add	a3,a3,a2
    18c4:	c3d4                	sw	a3,4(a5)
    18c6:	4150                	lw	a2,4(a0)
    18c8:	00c506b3          	add	a3,a0,a2
    18cc:	00d71c63          	bne	a4,a3,18e4 <prvInsertBlockIntoFreeList+0x3e>
    18d0:	200006b7          	lui	a3,0x20000
    18d4:	0ac6a683          	lw	a3,172(a3) # 200000ac <pxEnd>
    18d8:	00d70663          	beq	a4,a3,18e4 <prvInsertBlockIntoFreeList+0x3e>
    18dc:	4354                	lw	a3,4(a4)
    18de:	4318                	lw	a4,0(a4)
    18e0:	96b2                	add	a3,a3,a2
    18e2:	c154                	sw	a3,4(a0)
    18e4:	c118                	sw	a4,0(a0)
    18e6:	00f50363          	beq	a0,a5,18ec <prvInsertBlockIntoFreeList+0x46>
    18ea:	c388                	sw	a0,0(a5)
    18ec:	8082                	ret
    18ee:	87ba                	mv	a5,a4
    18f0:	bf7d                	j	18ae <prvInsertBlockIntoFreeList+0x8>

000018f2 <pvPortMalloc>:
    18f2:	c0bfe2ef          	jal	t0,4fc <__riscv_save_4>
    18f6:	1141                	addi	sp,sp,-16
    18f8:	c62a                	sw	a0,12(sp)
    18fa:	377000ef          	jal	ra,2470 <vTaskSuspendAll>
    18fe:	200006b7          	lui	a3,0x20000
    1902:	0ac6a783          	lw	a5,172(a3) # 200000ac <pxEnd>
    1906:	20000637          	lui	a2,0x20000
    190a:	0ac68693          	addi	a3,a3,172
    190e:	0b060613          	addi	a2,a2,176 # 200000b0 <xBlockAllocatedBit>
    1912:	4532                	lw	a0,12(sp)
    1914:	efa1                	bnez	a5,196c <pvPortMalloc+0x7a>
    1916:	20000737          	lui	a4,0x20000
    191a:	63470793          	addi	a5,a4,1588 # 20000634 <ucHeap>
    191e:	00f7f593          	andi	a1,a5,15
    1922:	63470713          	addi	a4,a4,1588
    1926:	c581                	beqz	a1,192e <pvPortMalloc+0x3c>
    1928:	00f78713          	addi	a4,a5,15
    192c:	9b41                	andi	a4,a4,-16
    192e:	200005b7          	lui	a1,0x20000
    1932:	0c458593          	addi	a1,a1,196 # 200000c4 <xStart>
    1936:	0005a223          	sw	zero,4(a1)
    193a:	c198                	sw	a4,0(a1)
    193c:	658d                	lui	a1,0x3
    193e:	15c1                	addi	a1,a1,-16
    1940:	97ae                	add	a5,a5,a1
    1942:	9bc1                	andi	a5,a5,-16
    1944:	0007a223          	sw	zero,4(a5)
    1948:	0007a023          	sw	zero,0(a5)
    194c:	40e785b3          	sub	a1,a5,a4
    1950:	c29c                	sw	a5,0(a3)
    1952:	c31c                	sw	a5,0(a4)
    1954:	200007b7          	lui	a5,0x20000
    1958:	0ab7ac23          	sw	a1,184(a5) # 200000b8 <xMinimumEverFreeBytesRemaining>
    195c:	200007b7          	lui	a5,0x20000
    1960:	0ab7aa23          	sw	a1,180(a5) # 200000b4 <xFreeBytesRemaining>
    1964:	800007b7          	lui	a5,0x80000
    1968:	c34c                	sw	a1,4(a4)
    196a:	c21c                	sw	a5,0(a2)
    196c:	00062a03          	lw	s4,0(a2)
    1970:	00aa77b3          	and	a5,s4,a0
    1974:	e385                	bnez	a5,1994 <pvPortMalloc+0xa2>
    1976:	fff50793          	addi	a5,a0,-1
    197a:	5739                	li	a4,-18
    197c:	00f76c63          	bltu	a4,a5,1994 <pvPortMalloc+0xa2>
    1980:	01050793          	addi	a5,a0,16
    1984:	00f7f713          	andi	a4,a5,15
    1988:	c341                	beqz	a4,1a08 <pvPortMalloc+0x116>
    198a:	ff07f713          	andi	a4,a5,-16
    198e:	0741                	addi	a4,a4,16
    1990:	06e7eb63          	bltu	a5,a4,1a06 <pvPortMalloc+0x114>
    1994:	4481                	li	s1,0
    1996:	a089                	j	19d8 <pvPortMalloc+0xe6>
    1998:	8722                	mv	a4,s0
    199a:	842e                	mv	s0,a1
    199c:	a061                	j	1a24 <pvPortMalloc+0x132>
    199e:	c158                	sw	a4,4(a0)
    19a0:	c05c                	sw	a5,4(s0)
    19a2:	3711                	jal	18a6 <prvInsertBlockIntoFreeList>
    19a4:	4058                	lw	a4,4(s0)
    19a6:	200006b7          	lui	a3,0x20000
    19aa:	0b868693          	addi	a3,a3,184 # 200000b8 <xMinimumEverFreeBytesRemaining>
    19ae:	4290                	lw	a2,0(a3)
    19b0:	40e907b3          	sub	a5,s2,a4
    19b4:	00f9a023          	sw	a5,0(s3)
    19b8:	00c7f363          	bgeu	a5,a2,19be <pvPortMalloc+0xcc>
    19bc:	c29c                	sw	a5,0(a3)
    19be:	200007b7          	lui	a5,0x20000
    19c2:	00ea6733          	or	a4,s4,a4
    19c6:	0bc78793          	addi	a5,a5,188 # 200000bc <xNumberOfSuccessfulAllocations>
    19ca:	c058                	sw	a4,4(s0)
    19cc:	4398                	lw	a4,0(a5)
    19ce:	04c1                	addi	s1,s1,16
    19d0:	00042023          	sw	zero,0(s0)
    19d4:	0705                	addi	a4,a4,1
    19d6:	c398                	sw	a4,0(a5)
    19d8:	45d000ef          	jal	ra,2634 <xTaskResumeAll>
    19dc:	00f4f793          	andi	a5,s1,15
    19e0:	cbd1                	beqz	a5,1a74 <pvPortMalloc+0x182>
    19e2:	67a1                	lui	a5,0x8
    19e4:	80078793          	addi	a5,a5,-2048 # 7800 <_data_lma+0x328c>
    19e8:	30079073          	csrw	mstatus,a5
    19ec:	00004637          	lui	a2,0x4
    19f0:	00004537          	lui	a0,0x4
    19f4:	3e860613          	addi	a2,a2,1000 # 43e8 <_read+0xdc>
    19f8:	11000593          	li	a1,272
    19fc:	41050513          	addi	a0,a0,1040 # 4410 <_read+0x104>
    1a00:	64c010ef          	jal	ra,304c <iprintf>
    1a04:	a001                	j	1a04 <pvPortMalloc+0x112>
    1a06:	87ba                	mv	a5,a4
    1a08:	20000737          	lui	a4,0x20000
    1a0c:	0b472903          	lw	s2,180(a4) # 200000b4 <xFreeBytesRemaining>
    1a10:	0b470993          	addi	s3,a4,180
    1a14:	f8f960e3          	bltu	s2,a5,1994 <pvPortMalloc+0xa2>
    1a18:	20000737          	lui	a4,0x20000
    1a1c:	0c472403          	lw	s0,196(a4) # 200000c4 <xStart>
    1a20:	0c470713          	addi	a4,a4,196
    1a24:	4050                	lw	a2,4(s0)
    1a26:	00f67463          	bgeu	a2,a5,1a2e <pvPortMalloc+0x13c>
    1a2a:	400c                	lw	a1,0(s0)
    1a2c:	f5b5                	bnez	a1,1998 <pvPortMalloc+0xa6>
    1a2e:	4294                	lw	a3,0(a3)
    1a30:	f68682e3          	beq	a3,s0,1994 <pvPortMalloc+0xa2>
    1a34:	4014                	lw	a3,0(s0)
    1a36:	4304                	lw	s1,0(a4)
    1a38:	c314                	sw	a3,0(a4)
    1a3a:	40f60733          	sub	a4,a2,a5
    1a3e:	02000693          	li	a3,32
    1a42:	f6e6f1e3          	bgeu	a3,a4,19a4 <pvPortMalloc+0xb2>
    1a46:	00f40533          	add	a0,s0,a5
    1a4a:	00f57693          	andi	a3,a0,15
    1a4e:	daa1                	beqz	a3,199e <pvPortMalloc+0xac>
    1a50:	67a1                	lui	a5,0x8
    1a52:	80078793          	addi	a5,a5,-2048 # 7800 <_data_lma+0x328c>
    1a56:	30079073          	csrw	mstatus,a5
    1a5a:	00004637          	lui	a2,0x4
    1a5e:	00004537          	lui	a0,0x4
    1a62:	3e860613          	addi	a2,a2,1000 # 43e8 <_read+0xdc>
    1a66:	0cf00593          	li	a1,207
    1a6a:	41050513          	addi	a0,a0,1040 # 4410 <_read+0x104>
    1a6e:	5de010ef          	jal	ra,304c <iprintf>
    1a72:	a001                	j	1a72 <pvPortMalloc+0x180>
    1a74:	8526                	mv	a0,s1
    1a76:	0141                	addi	sp,sp,16
    1a78:	ab9fe06f          	j	530 <__riscv_restore_4>

00001a7c <vPortFree>:
    1a7c:	c155                	beqz	a0,1b20 <vPortFree+0xa4>
    1a7e:	a99fe2ef          	jal	t0,516 <__riscv_save_0>
    1a82:	200007b7          	lui	a5,0x20000
    1a86:	ff452703          	lw	a4,-12(a0)
    1a8a:	0b07a783          	lw	a5,176(a5) # 200000b0 <xBlockAllocatedBit>
    1a8e:	842a                	mv	s0,a0
    1a90:	00f776b3          	and	a3,a4,a5
    1a94:	e29d                	bnez	a3,1aba <vPortFree+0x3e>
    1a96:	67a1                	lui	a5,0x8
    1a98:	80078793          	addi	a5,a5,-2048 # 7800 <_data_lma+0x328c>
    1a9c:	30079073          	csrw	mstatus,a5
    1aa0:	00004637          	lui	a2,0x4
    1aa4:	00004537          	lui	a0,0x4
    1aa8:	3e860613          	addi	a2,a2,1000 # 43e8 <_read+0xdc>
    1aac:	12400593          	li	a1,292
    1ab0:	41050513          	addi	a0,a0,1040 # 4410 <_read+0x104>
    1ab4:	598010ef          	jal	ra,304c <iprintf>
    1ab8:	a001                	j	1ab8 <vPortFree+0x3c>
    1aba:	ff052683          	lw	a3,-16(a0)
    1abe:	c29d                	beqz	a3,1ae4 <vPortFree+0x68>
    1ac0:	67a1                	lui	a5,0x8
    1ac2:	80078793          	addi	a5,a5,-2048 # 7800 <_data_lma+0x328c>
    1ac6:	30079073          	csrw	mstatus,a5
    1aca:	00004637          	lui	a2,0x4
    1ace:	00004537          	lui	a0,0x4
    1ad2:	3e860613          	addi	a2,a2,1000 # 43e8 <_read+0xdc>
    1ad6:	12500593          	li	a1,293
    1ada:	41050513          	addi	a0,a0,1040 # 4410 <_read+0x104>
    1ade:	56e010ef          	jal	ra,304c <iprintf>
    1ae2:	a001                	j	1ae2 <vPortFree+0x66>
    1ae4:	fff7c793          	not	a5,a5
    1ae8:	8ff9                	and	a5,a5,a4
    1aea:	fef52a23          	sw	a5,-12(a0)
    1aee:	183000ef          	jal	ra,2470 <vTaskSuspendAll>
    1af2:	200007b7          	lui	a5,0x20000
    1af6:	0b478793          	addi	a5,a5,180 # 200000b4 <xFreeBytesRemaining>
    1afa:	4394                	lw	a3,0(a5)
    1afc:	ff442703          	lw	a4,-12(s0)
    1b00:	ff040513          	addi	a0,s0,-16
    1b04:	9736                	add	a4,a4,a3
    1b06:	c398                	sw	a4,0(a5)
    1b08:	3b79                	jal	18a6 <prvInsertBlockIntoFreeList>
    1b0a:	200007b7          	lui	a5,0x20000
    1b0e:	0c078793          	addi	a5,a5,192 # 200000c0 <xNumberOfSuccessfulFrees>
    1b12:	4398                	lw	a4,0(a5)
    1b14:	0705                	addi	a4,a4,1
    1b16:	c398                	sw	a4,0(a5)
    1b18:	31d000ef          	jal	ra,2634 <xTaskResumeAll>
    1b1c:	a1ffe06f          	j	53a <__riscv_restore_0>
    1b20:	8082                	ret

00001b22 <vPortSetupTimerInterrupt>:
    1b22:	e000e7b7          	lui	a5,0xe000e
    1b26:	5741                	li	a4,-16
    1b28:	40e78723          	sb	a4,1038(a5) # e000e40e <__freertos_irq_stack_top+0xbfffe40e>
    1b2c:	40e78623          	sb	a4,1036(a5)
    1b30:	e000f7b7          	lui	a5,0xe000f
    1b34:	0007a023          	sw	zero,0(a5) # e000f000 <__freertos_irq_stack_top+0xbffff000>
    1b38:	0007a223          	sw	zero,4(a5)
    1b3c:	4681                	li	a3,0
    1b3e:	c794                	sw	a3,8(a5)
    1b40:	4701                	li	a4,0
    1b42:	c7d8                	sw	a4,12(a5)
    1b44:	20000737          	lui	a4,0x20000
    1b48:	08072583          	lw	a1,128(a4) # 20000080 <SystemCoreClock>
    1b4c:	3e800713          	li	a4,1000
    1b50:	4681                	li	a3,0
    1b52:	02e5d633          	divu	a2,a1,a4
    1b56:	473d                	li	a4,15
    1b58:	cb90                	sw	a2,16(a5)
    1b5a:	cbd4                	sw	a3,20(a5)
    1b5c:	c398                	sw	a4,0(a5)
    1b5e:	8082                	ret

00001b60 <xPortStartScheduler>:
    1b60:	9b7fe2ef          	jal	t0,516 <__riscv_save_0>
    1b64:	1141                	addi	sp,sp,-16
    1b66:	c602                	sw	zero,12(sp)
    1b68:	305027f3          	csrr	a5,mtvec
    1b6c:	c63e                	sw	a5,12(sp)
    1b6e:	47b2                	lw	a5,12(sp)
    1b70:	470d                	li	a4,3
    1b72:	8b8d                	andi	a5,a5,3
    1b74:	02e78463          	beq	a5,a4,1b9c <xPortStartScheduler+0x3c>
    1b78:	67a1                	lui	a5,0x8
    1b7a:	80078793          	addi	a5,a5,-2048 # 7800 <_data_lma+0x328c>
    1b7e:	30079073          	csrw	mstatus,a5
    1b82:	00004637          	lui	a2,0x4
    1b86:	00004537          	lui	a0,0x4
    1b8a:	43460613          	addi	a2,a2,1076 # 4434 <_read+0x128>
    1b8e:	0b600593          	li	a1,182
    1b92:	41050513          	addi	a0,a0,1040 # 4410 <_read+0x104>
    1b96:	4b6010ef          	jal	ra,304c <iprintf>
    1b9a:	a001                	j	1b9a <xPortStartScheduler+0x3a>
    1b9c:	200107b7          	lui	a5,0x20010
    1ba0:	00078793          	mv	a5,a5
    1ba4:	8bbd                	andi	a5,a5,15
    1ba6:	c39d                	beqz	a5,1bcc <xPortStartScheduler+0x6c>
    1ba8:	67a1                	lui	a5,0x8
    1baa:	80078793          	addi	a5,a5,-2048 # 7800 <_data_lma+0x328c>
    1bae:	30079073          	csrw	mstatus,a5
    1bb2:	00004637          	lui	a2,0x4
    1bb6:	00004537          	lui	a0,0x4
    1bba:	43460613          	addi	a2,a2,1076 # 4434 <_read+0x128>
    1bbe:	0bb00593          	li	a1,187
    1bc2:	41050513          	addi	a0,a0,1040 # 4410 <_read+0x104>
    1bc6:	486010ef          	jal	ra,304c <iprintf>
    1bca:	a001                	j	1bca <xPortStartScheduler+0x6a>
    1bcc:	3f99                	jal	1b22 <vPortSetupTimerInterrupt>
    1bce:	e000e7b7          	lui	a5,0xe000e
    1bd2:	6705                	lui	a4,0x1
    1bd4:	10e7a023          	sw	a4,256(a5) # e000e100 <__freertos_irq_stack_top+0xbfffe100>
    1bd8:	6711                	lui	a4,0x4
    1bda:	10e7a023          	sw	a4,256(a5)
    1bde:	8001a423          	sw	zero,-2040(gp) # 20000088 <uxCriticalNesting>
    1be2:	f1efe0ef          	jal	ra,300 <xPortStartFirstTask>
    1be6:	4501                	li	a0,0
    1be8:	0141                	addi	sp,sp,16
    1bea:	951fe06f          	j	53a <__riscv_restore_0>

00001bee <SysTick_Handler>:
    1bee:	34011173          	csrrw	sp,mscratch,sp
    1bf2:	67a1                	lui	a5,0x8
    1bf4:	80078793          	addi	a5,a5,-2048 # 7800 <_data_lma+0x328c>
    1bf8:	30079073          	csrw	mstatus,a5
    1bfc:	e000f7b7          	lui	a5,0xe000f
    1c00:	0007a223          	sw	zero,4(a5) # e000f004 <__freertos_irq_stack_top+0xbffff004>
    1c04:	087000ef          	jal	ra,248a <xTaskIncrementTick>
    1c08:	c511                	beqz	a0,1c14 <SysTick_Handler+0x26>
    1c0a:	e000e7b7          	lui	a5,0xe000e
    1c0e:	6711                	lui	a4,0x4
    1c10:	20e7a023          	sw	a4,512(a5) # e000e200 <__freertos_irq_stack_top+0xbfffe200>
    1c14:	67a1                	lui	a5,0x8
    1c16:	88878793          	addi	a5,a5,-1912 # 7888 <_data_lma+0x3314>
    1c1a:	30079073          	csrw	mstatus,a5
    1c1e:	34011173          	csrrw	sp,mscratch,sp
    1c22:	30200073          	mret

00001c26 <vPortEnterCritical>:
    1c26:	67a1                	lui	a5,0x8
    1c28:	80078793          	addi	a5,a5,-2048 # 7800 <_data_lma+0x328c>
    1c2c:	30079073          	csrw	mstatus,a5
    1c30:	80818793          	addi	a5,gp,-2040 # 20000088 <uxCriticalNesting>
    1c34:	4398                	lw	a4,0(a5)
    1c36:	0705                	addi	a4,a4,1
    1c38:	c398                	sw	a4,0(a5)
    1c3a:	8082                	ret

00001c3c <vPortExitCritical>:
    1c3c:	80818713          	addi	a4,gp,-2040 # 20000088 <uxCriticalNesting>
    1c40:	431c                	lw	a5,0(a4)
    1c42:	e78d                	bnez	a5,1c6c <vPortExitCritical+0x30>
    1c44:	8d3fe2ef          	jal	t0,516 <__riscv_save_0>
    1c48:	67a1                	lui	a5,0x8
    1c4a:	80078793          	addi	a5,a5,-2048 # 7800 <_data_lma+0x328c>
    1c4e:	30079073          	csrw	mstatus,a5
    1c52:	00004637          	lui	a2,0x4
    1c56:	00004537          	lui	a0,0x4
    1c5a:	43460613          	addi	a2,a2,1076 # 4434 <_read+0x128>
    1c5e:	10200593          	li	a1,258
    1c62:	41050513          	addi	a0,a0,1040 # 4410 <_read+0x104>
    1c66:	3e6010ef          	jal	ra,304c <iprintf>
    1c6a:	a001                	j	1c6a <vPortExitCritical+0x2e>
    1c6c:	17fd                	addi	a5,a5,-1
    1c6e:	c31c                	sw	a5,0(a4)
    1c70:	e791                	bnez	a5,1c7c <vPortExitCritical+0x40>
    1c72:	67a1                	lui	a5,0x8
    1c74:	88878793          	addi	a5,a5,-1912 # 7888 <_data_lma+0x3314>
    1c78:	30079073          	csrw	mstatus,a5
    1c7c:	8082                	ret

00001c7e <vListInitialise>:
    1c7e:	00850793          	addi	a5,a0,8
    1c82:	577d                	li	a4,-1
    1c84:	c15c                	sw	a5,4(a0)
    1c86:	c518                	sw	a4,8(a0)
    1c88:	c55c                	sw	a5,12(a0)
    1c8a:	c91c                	sw	a5,16(a0)
    1c8c:	00052023          	sw	zero,0(a0)
    1c90:	8082                	ret

00001c92 <vListInitialiseItem>:
    1c92:	00052823          	sw	zero,16(a0)
    1c96:	8082                	ret

00001c98 <vListInsert>:
    1c98:	4198                	lw	a4,0(a1)
    1c9a:	56fd                	li	a3,-1
    1c9c:	00850793          	addi	a5,a0,8
    1ca0:	00d71e63          	bne	a4,a3,1cbc <vListInsert+0x24>
    1ca4:	491c                	lw	a5,16(a0)
    1ca6:	43d8                	lw	a4,4(a5)
    1ca8:	c1d8                	sw	a4,4(a1)
    1caa:	c70c                	sw	a1,8(a4)
    1cac:	c59c                	sw	a5,8(a1)
    1cae:	c3cc                	sw	a1,4(a5)
    1cb0:	411c                	lw	a5,0(a0)
    1cb2:	c988                	sw	a0,16(a1)
    1cb4:	0785                	addi	a5,a5,1
    1cb6:	c11c                	sw	a5,0(a0)
    1cb8:	8082                	ret
    1cba:	87b6                	mv	a5,a3
    1cbc:	43d4                	lw	a3,4(a5)
    1cbe:	4290                	lw	a2,0(a3)
    1cc0:	fec77de3          	bgeu	a4,a2,1cba <vListInsert+0x22>
    1cc4:	b7cd                	j	1ca6 <vListInsert+0xe>

00001cc6 <uxListRemove>:
    1cc6:	4154                	lw	a3,4(a0)
    1cc8:	4518                	lw	a4,8(a0)
    1cca:	491c                	lw	a5,16(a0)
    1ccc:	c698                	sw	a4,8(a3)
    1cce:	c354                	sw	a3,4(a4)
    1cd0:	43d4                	lw	a3,4(a5)
    1cd2:	00a69363          	bne	a3,a0,1cd8 <uxListRemove+0x12>
    1cd6:	c3d8                	sw	a4,4(a5)
    1cd8:	4398                	lw	a4,0(a5)
    1cda:	00052823          	sw	zero,16(a0)
    1cde:	177d                	addi	a4,a4,-1
    1ce0:	c398                	sw	a4,0(a5)
    1ce2:	4388                	lw	a0,0(a5)
    1ce4:	8082                	ret

00001ce6 <prvIsQueueEmpty>:
    1ce6:	831fe2ef          	jal	t0,516 <__riscv_save_0>
    1cea:	1141                	addi	sp,sp,-16
    1cec:	c62a                	sw	a0,12(sp)
    1cee:	3f25                	jal	1c26 <vPortEnterCritical>
    1cf0:	4532                	lw	a0,12(sp)
    1cf2:	5d00                	lw	s0,56(a0)
    1cf4:	37a1                	jal	1c3c <vPortExitCritical>
    1cf6:	00143513          	seqz	a0,s0
    1cfa:	0141                	addi	sp,sp,16
    1cfc:	83ffe06f          	j	53a <__riscv_restore_0>

00001d00 <prvCopyDataFromQueue>:
    1d00:	4130                	lw	a2,64(a0)
    1d02:	c215                	beqz	a2,1d26 <prvCopyDataFromQueue+0x26>
    1d04:	813fe2ef          	jal	t0,516 <__riscv_save_0>
    1d08:	4558                	lw	a4,12(a0)
    1d0a:	4514                	lw	a3,8(a0)
    1d0c:	87aa                	mv	a5,a0
    1d0e:	9732                	add	a4,a4,a2
    1d10:	c558                	sw	a4,12(a0)
    1d12:	00d76463          	bltu	a4,a3,1d1a <prvCopyDataFromQueue+0x1a>
    1d16:	4118                	lw	a4,0(a0)
    1d18:	c558                	sw	a4,12(a0)
    1d1a:	852e                	mv	a0,a1
    1d1c:	47cc                	lw	a1,12(a5)
    1d1e:	27c010ef          	jal	ra,2f9a <memcpy>
    1d22:	819fe06f          	j	53a <__riscv_restore_0>
    1d26:	8082                	ret

00001d28 <prvUnlockQueue>:
    1d28:	feefe2ef          	jal	t0,516 <__riscv_save_0>
    1d2c:	842a                	mv	s0,a0
    1d2e:	3de5                	jal	1c26 <vPortEnterCritical>
    1d30:	04544483          	lbu	s1,69(s0)
    1d34:	02440913          	addi	s2,s0,36
    1d38:	04e2                	slli	s1,s1,0x18
    1d3a:	84e1                	srai	s1,s1,0x18
    1d3c:	02904563          	bgtz	s1,1d66 <prvUnlockQueue+0x3e>
    1d40:	57fd                	li	a5,-1
    1d42:	04f402a3          	sb	a5,69(s0)
    1d46:	3ddd                	jal	1c3c <vPortExitCritical>
    1d48:	3df9                	jal	1c26 <vPortEnterCritical>
    1d4a:	04444483          	lbu	s1,68(s0)
    1d4e:	01040913          	addi	s2,s0,16
    1d52:	04e2                	slli	s1,s1,0x18
    1d54:	84e1                	srai	s1,s1,0x18
    1d56:	02904463          	bgtz	s1,1d7e <prvUnlockQueue+0x56>
    1d5a:	57fd                	li	a5,-1
    1d5c:	04f40223          	sb	a5,68(s0)
    1d60:	3df1                	jal	1c3c <vPortExitCritical>
    1d62:	fd8fe06f          	j	53a <__riscv_restore_0>
    1d66:	505c                	lw	a5,36(s0)
    1d68:	dfe1                	beqz	a5,1d40 <prvUnlockQueue+0x18>
    1d6a:	854a                	mv	a0,s2
    1d6c:	3e9000ef          	jal	ra,2954 <xTaskRemoveFromEventList>
    1d70:	c119                	beqz	a0,1d76 <prvUnlockQueue+0x4e>
    1d72:	5a7000ef          	jal	ra,2b18 <vTaskMissedYield>
    1d76:	14fd                	addi	s1,s1,-1
    1d78:	04e2                	slli	s1,s1,0x18
    1d7a:	84e1                	srai	s1,s1,0x18
    1d7c:	b7c1                	j	1d3c <prvUnlockQueue+0x14>
    1d7e:	481c                	lw	a5,16(s0)
    1d80:	dfe9                	beqz	a5,1d5a <prvUnlockQueue+0x32>
    1d82:	854a                	mv	a0,s2
    1d84:	3d1000ef          	jal	ra,2954 <xTaskRemoveFromEventList>
    1d88:	c119                	beqz	a0,1d8e <prvUnlockQueue+0x66>
    1d8a:	58f000ef          	jal	ra,2b18 <vTaskMissedYield>
    1d8e:	14fd                	addi	s1,s1,-1
    1d90:	04e2                	slli	s1,s1,0x18
    1d92:	84e1                	srai	s1,s1,0x18
    1d94:	b7c9                	j	1d56 <prvUnlockQueue+0x2e>

00001d96 <xQueueGenericReset>:
    1d96:	f80fe2ef          	jal	t0,516 <__riscv_save_0>
    1d9a:	1141                	addi	sp,sp,-16
    1d9c:	e11d                	bnez	a0,1dc2 <xQueueGenericReset+0x2c>
    1d9e:	67a1                	lui	a5,0x8
    1da0:	80078793          	addi	a5,a5,-2048 # 7800 <_data_lma+0x328c>
    1da4:	30079073          	csrw	mstatus,a5
    1da8:	00004637          	lui	a2,0x4
    1dac:	00004537          	lui	a0,0x4
    1db0:	45c60613          	addi	a2,a2,1116 # 445c <_read+0x150>
    1db4:	11000593          	li	a1,272
    1db8:	41050513          	addi	a0,a0,1040 # 4410 <_read+0x104>
    1dbc:	290010ef          	jal	ra,304c <iprintf>
    1dc0:	a001                	j	1dc0 <xQueueGenericReset+0x2a>
    1dc2:	5d5c                	lw	a5,60(a0)
    1dc4:	c62e                	sw	a1,12(sp)
    1dc6:	842a                	mv	s0,a0
    1dc8:	c3bd                	beqz	a5,1e2e <xQueueGenericReset+0x98>
    1dca:	4138                	lw	a4,64(a0)
    1dcc:	02e7b7b3          	mulhu	a5,a5,a4
    1dd0:	efb9                	bnez	a5,1e2e <xQueueGenericReset+0x98>
    1dd2:	3d91                	jal	1c26 <vPortEnterCritical>
    1dd4:	4030                	lw	a2,64(s0)
    1dd6:	5c58                	lw	a4,60(s0)
    1dd8:	4014                	lw	a3,0(s0)
    1dda:	02042c23          	sw	zero,56(s0)
    1dde:	02e607b3          	mul	a5,a2,a4
    1de2:	45b2                	lw	a1,12(sp)
    1de4:	c054                	sw	a3,4(s0)
    1de6:	00f68733          	add	a4,a3,a5
    1dea:	8f91                	sub	a5,a5,a2
    1dec:	97b6                	add	a5,a5,a3
    1dee:	c45c                	sw	a5,12(s0)
    1df0:	57fd                	li	a5,-1
    1df2:	04f40223          	sb	a5,68(s0)
    1df6:	c418                	sw	a4,8(s0)
    1df8:	04f402a3          	sb	a5,69(s0)
    1dfc:	e195                	bnez	a1,1e20 <xQueueGenericReset+0x8a>
    1dfe:	481c                	lw	a5,16(s0)
    1e00:	cb99                	beqz	a5,1e16 <xQueueGenericReset+0x80>
    1e02:	01040513          	addi	a0,s0,16
    1e06:	34f000ef          	jal	ra,2954 <xTaskRemoveFromEventList>
    1e0a:	c511                	beqz	a0,1e16 <xQueueGenericReset+0x80>
    1e0c:	e000e7b7          	lui	a5,0xe000e
    1e10:	6711                	lui	a4,0x4
    1e12:	20e7a023          	sw	a4,512(a5) # e000e200 <__freertos_irq_stack_top+0xbfffe200>
    1e16:	351d                	jal	1c3c <vPortExitCritical>
    1e18:	4505                	li	a0,1
    1e1a:	0141                	addi	sp,sp,16
    1e1c:	f1efe06f          	j	53a <__riscv_restore_0>
    1e20:	01040513          	addi	a0,s0,16
    1e24:	3da9                	jal	1c7e <vListInitialise>
    1e26:	02440513          	addi	a0,s0,36
    1e2a:	3d91                	jal	1c7e <vListInitialise>
    1e2c:	b7ed                	j	1e16 <xQueueGenericReset+0x80>
    1e2e:	67a1                	lui	a5,0x8
    1e30:	80078793          	addi	a5,a5,-2048 # 7800 <_data_lma+0x328c>
    1e34:	30079073          	csrw	mstatus,a5
    1e38:	00004637          	lui	a2,0x4
    1e3c:	00004537          	lui	a0,0x4
    1e40:	45c60613          	addi	a2,a2,1116 # 445c <_read+0x150>
    1e44:	14500593          	li	a1,325
    1e48:	41050513          	addi	a0,a0,1040 # 4410 <_read+0x104>
    1e4c:	200010ef          	jal	ra,304c <iprintf>
    1e50:	a001                	j	1e50 <xQueueGenericReset+0xba>

00001e52 <xQueueGenericCreate>:
    1e52:	ec4fe2ef          	jal	t0,516 <__riscv_save_0>
    1e56:	1141                	addi	sp,sp,-16
    1e58:	c121                	beqz	a0,1e98 <xQueueGenericCreate+0x46>
    1e5a:	02a5b7b3          	mulhu	a5,a1,a0
    1e5e:	84aa                	mv	s1,a0
    1e60:	ef85                	bnez	a5,1e98 <xQueueGenericCreate+0x46>
    1e62:	02b50533          	mul	a0,a0,a1
    1e66:	fb700793          	li	a5,-73
    1e6a:	02a7e763          	bltu	a5,a0,1e98 <xQueueGenericCreate+0x46>
    1e6e:	04850513          	addi	a0,a0,72
    1e72:	c62e                	sw	a1,12(sp)
    1e74:	3cbd                	jal	18f2 <pvPortMalloc>
    1e76:	842a                	mv	s0,a0
    1e78:	cd01                	beqz	a0,1e90 <xQueueGenericCreate+0x3e>
    1e7a:	45b2                	lw	a1,12(sp)
    1e7c:	87aa                	mv	a5,a0
    1e7e:	c199                	beqz	a1,1e84 <xQueueGenericCreate+0x32>
    1e80:	04850793          	addi	a5,a0,72
    1e84:	c02c                	sw	a1,64(s0)
    1e86:	c01c                	sw	a5,0(s0)
    1e88:	dc44                	sw	s1,60(s0)
    1e8a:	4585                	li	a1,1
    1e8c:	8522                	mv	a0,s0
    1e8e:	3721                	jal	1d96 <xQueueGenericReset>
    1e90:	8522                	mv	a0,s0
    1e92:	0141                	addi	sp,sp,16
    1e94:	ea6fe06f          	j	53a <__riscv_restore_0>
    1e98:	67a1                	lui	a5,0x8
    1e9a:	80078793          	addi	a5,a5,-2048 # 7800 <_data_lma+0x328c>
    1e9e:	30079073          	csrw	mstatus,a5
    1ea2:	00004637          	lui	a2,0x4
    1ea6:	00004537          	lui	a0,0x4
    1eaa:	45c60613          	addi	a2,a2,1116 # 445c <_read+0x150>
    1eae:	1c600593          	li	a1,454
    1eb2:	41050513          	addi	a0,a0,1040 # 4410 <_read+0x104>
    1eb6:	196010ef          	jal	ra,304c <iprintf>
    1eba:	a001                	j	1eba <xQueueGenericCreate+0x68>

00001ebc <xQueueReceive>:
    1ebc:	e32fe2ef          	jal	t0,4ee <__riscv_save_10>
    1ec0:	1101                	addi	sp,sp,-32
    1ec2:	c632                	sw	a2,12(sp)
    1ec4:	e11d                	bnez	a0,1eea <xQueueReceive+0x2e>
    1ec6:	67a1                	lui	a5,0x8
    1ec8:	80078793          	addi	a5,a5,-2048 # 7800 <_data_lma+0x328c>
    1ecc:	30079073          	csrw	mstatus,a5
    1ed0:	00004637          	lui	a2,0x4
    1ed4:	00004537          	lui	a0,0x4
    1ed8:	45c60613          	addi	a2,a2,1116 # 445c <_read+0x150>
    1edc:	55100593          	li	a1,1361
    1ee0:	41050513          	addi	a0,a0,1040 # 4410 <_read+0x104>
    1ee4:	168010ef          	jal	ra,304c <iprintf>
    1ee8:	a001                	j	1ee8 <xQueueReceive+0x2c>
    1eea:	842a                	mv	s0,a0
    1eec:	89ae                	mv	s3,a1
    1eee:	e58d                	bnez	a1,1f18 <xQueueReceive+0x5c>
    1ef0:	413c                	lw	a5,64(a0)
    1ef2:	c39d                	beqz	a5,1f18 <xQueueReceive+0x5c>
    1ef4:	67a1                	lui	a5,0x8
    1ef6:	80078793          	addi	a5,a5,-2048 # 7800 <_data_lma+0x328c>
    1efa:	30079073          	csrw	mstatus,a5
    1efe:	00004637          	lui	a2,0x4
    1f02:	00004537          	lui	a0,0x4
    1f06:	45c60613          	addi	a2,a2,1116 # 445c <_read+0x150>
    1f0a:	55500593          	li	a1,1365
    1f0e:	41050513          	addi	a0,a0,1040 # 4410 <_read+0x104>
    1f12:	13a010ef          	jal	ra,304c <iprintf>
    1f16:	a001                	j	1f16 <xQueueReceive+0x5a>
    1f18:	40d000ef          	jal	ra,2b24 <xTaskGetSchedulerState>
    1f1c:	e515                	bnez	a0,1f48 <xQueueReceive+0x8c>
    1f1e:	47b2                	lw	a5,12(sp)
    1f20:	4901                	li	s2,0
    1f22:	c785                	beqz	a5,1f4a <xQueueReceive+0x8e>
    1f24:	67a1                	lui	a5,0x8
    1f26:	80078793          	addi	a5,a5,-2048 # 7800 <_data_lma+0x328c>
    1f2a:	30079073          	csrw	mstatus,a5
    1f2e:	00004637          	lui	a2,0x4
    1f32:	00004537          	lui	a0,0x4
    1f36:	45c60613          	addi	a2,a2,1116 # 445c <_read+0x150>
    1f3a:	55a00593          	li	a1,1370
    1f3e:	41050513          	addi	a0,a0,1040 # 4410 <_read+0x104>
    1f42:	10a010ef          	jal	ra,304c <iprintf>
    1f46:	a001                	j	1f46 <xQueueReceive+0x8a>
    1f48:	4901                	li	s2,0
    1f4a:	5a7d                	li	s4,-1
    1f4c:	02440a93          	addi	s5,s0,36
    1f50:	e000eb37          	lui	s6,0xe000e
    1f54:	6b91                	lui	s7,0x4
    1f56:	a095                	j	1fba <xQueueReceive+0xfe>
    1f58:	47b2                	lw	a5,12(sp)
    1f5a:	e781                	bnez	a5,1f62 <xQueueReceive+0xa6>
    1f5c:	31c5                	jal	1c3c <vPortExitCritical>
    1f5e:	4501                	li	a0,0
    1f60:	a059                	j	1fe6 <xQueueReceive+0x12a>
    1f62:	00091563          	bnez	s2,1f6c <xQueueReceive+0xb0>
    1f66:	0828                	addi	a0,sp,24
    1f68:	2d7000ef          	jal	ra,2a3e <vTaskInternalSetTimeOutState>
    1f6c:	39c1                	jal	1c3c <vPortExitCritical>
    1f6e:	2309                	jal	2470 <vTaskSuspendAll>
    1f70:	395d                	jal	1c26 <vPortEnterCritical>
    1f72:	04444783          	lbu	a5,68(s0)
    1f76:	07e2                	slli	a5,a5,0x18
    1f78:	87e1                	srai	a5,a5,0x18
    1f7a:	01479463          	bne	a5,s4,1f82 <xQueueReceive+0xc6>
    1f7e:	04040223          	sb	zero,68(s0)
    1f82:	04544783          	lbu	a5,69(s0)
    1f86:	07e2                	slli	a5,a5,0x18
    1f88:	87e1                	srai	a5,a5,0x18
    1f8a:	01479463          	bne	a5,s4,1f92 <xQueueReceive+0xd6>
    1f8e:	040402a3          	sb	zero,69(s0)
    1f92:	316d                	jal	1c3c <vPortExitCritical>
    1f94:	006c                	addi	a1,sp,12
    1f96:	0828                	addi	a0,sp,24
    1f98:	2bd000ef          	jal	ra,2a54 <xTaskCheckForTimeOut>
    1f9c:	ed21                	bnez	a0,1ff4 <xQueueReceive+0x138>
    1f9e:	8522                	mv	a0,s0
    1fa0:	3399                	jal	1ce6 <prvIsQueueEmpty>
    1fa2:	c529                	beqz	a0,1fec <xQueueReceive+0x130>
    1fa4:	45b2                	lw	a1,12(sp)
    1fa6:	8556                	mv	a0,s5
    1fa8:	0ef000ef          	jal	ra,2896 <vTaskPlaceOnEventList>
    1fac:	8522                	mv	a0,s0
    1fae:	3bad                	jal	1d28 <prvUnlockQueue>
    1fb0:	2551                	jal	2634 <xTaskResumeAll>
    1fb2:	e119                	bnez	a0,1fb8 <xQueueReceive+0xfc>
    1fb4:	217b2023          	sw	s7,512(s6) # e000e200 <__freertos_irq_stack_top+0xbfffe200>
    1fb8:	4905                	li	s2,1
    1fba:	31b5                	jal	1c26 <vPortEnterCritical>
    1fbc:	5c04                	lw	s1,56(s0)
    1fbe:	dcc9                	beqz	s1,1f58 <xQueueReceive+0x9c>
    1fc0:	85ce                	mv	a1,s3
    1fc2:	8522                	mv	a0,s0
    1fc4:	14fd                	addi	s1,s1,-1
    1fc6:	3b2d                	jal	1d00 <prvCopyDataFromQueue>
    1fc8:	dc04                	sw	s1,56(s0)
    1fca:	481c                	lw	a5,16(s0)
    1fcc:	cb99                	beqz	a5,1fe2 <xQueueReceive+0x126>
    1fce:	01040513          	addi	a0,s0,16
    1fd2:	183000ef          	jal	ra,2954 <xTaskRemoveFromEventList>
    1fd6:	c511                	beqz	a0,1fe2 <xQueueReceive+0x126>
    1fd8:	e000e7b7          	lui	a5,0xe000e
    1fdc:	6711                	lui	a4,0x4
    1fde:	20e7a023          	sw	a4,512(a5) # e000e200 <__freertos_irq_stack_top+0xbfffe200>
    1fe2:	39a9                	jal	1c3c <vPortExitCritical>
    1fe4:	4505                	li	a0,1
    1fe6:	6105                	addi	sp,sp,32
    1fe8:	d3efe06f          	j	526 <__riscv_restore_10>
    1fec:	8522                	mv	a0,s0
    1fee:	3b2d                	jal	1d28 <prvUnlockQueue>
    1ff0:	2591                	jal	2634 <xTaskResumeAll>
    1ff2:	b7d9                	j	1fb8 <xQueueReceive+0xfc>
    1ff4:	8522                	mv	a0,s0
    1ff6:	3b0d                	jal	1d28 <prvUnlockQueue>
    1ff8:	2d35                	jal	2634 <xTaskResumeAll>
    1ffa:	8522                	mv	a0,s0
    1ffc:	31ed                	jal	1ce6 <prvIsQueueEmpty>
    1ffe:	dd4d                	beqz	a0,1fb8 <xQueueReceive+0xfc>
    2000:	bfb9                	j	1f5e <xQueueReceive+0xa2>

00002002 <vQueueAddToRegistry>:
    2002:	e515                	bnez	a0,202e <vQueueAddToRegistry+0x2c>
    2004:	d12fe2ef          	jal	t0,516 <__riscv_save_0>
    2008:	67a1                	lui	a5,0x8
    200a:	80078793          	addi	a5,a5,-2048 # 7800 <_data_lma+0x328c>
    200e:	30079073          	csrw	mstatus,a5
    2012:	00004637          	lui	a2,0x4
    2016:	6585                	lui	a1,0x1
    2018:	00004537          	lui	a0,0x4
    201c:	45c60613          	addi	a2,a2,1116 # 445c <_read+0x150>
    2020:	ac858593          	addi	a1,a1,-1336 # ac8 <CAN_task+0x2c>
    2024:	41050513          	addi	a0,a0,1040 # 4410 <_read+0x104>
    2028:	024010ef          	jal	ra,304c <iprintf>
    202c:	a001                	j	202c <vQueueAddToRegistry+0x2a>
    202e:	cd9d                	beqz	a1,206c <vQueueAddToRegistry+0x6a>
    2030:	20003637          	lui	a2,0x20003
    2034:	63460693          	addi	a3,a2,1588 # 20003634 <xQueueRegistry>
    2038:	4781                	li	a5,0
    203a:	4701                	li	a4,0
    203c:	63460613          	addi	a2,a2,1588
    2040:	4821                	li	a6,8
    2042:	0046a883          	lw	a7,4(a3)
    2046:	00a89863          	bne	a7,a0,2056 <vQueueAddToRegistry+0x54>
    204a:	00371793          	slli	a5,a4,0x3
    204e:	97b2                	add	a5,a5,a2
    2050:	c38c                	sw	a1,0(a5)
    2052:	c3c8                	sw	a0,4(a5)
    2054:	a821                	j	206c <vQueueAddToRegistry+0x6a>
    2056:	e791                	bnez	a5,2062 <vQueueAddToRegistry+0x60>
    2058:	0006a883          	lw	a7,0(a3)
    205c:	00089363          	bnez	a7,2062 <vQueueAddToRegistry+0x60>
    2060:	87b6                	mv	a5,a3
    2062:	0705                	addi	a4,a4,1
    2064:	06a1                	addi	a3,a3,8
    2066:	fd071ee3          	bne	a4,a6,2042 <vQueueAddToRegistry+0x40>
    206a:	f3fd                	bnez	a5,2050 <vQueueAddToRegistry+0x4e>
    206c:	8082                	ret

0000206e <vQueueWaitForMessageRestricted>:
    206e:	ca8fe2ef          	jal	t0,516 <__riscv_save_0>
    2072:	1141                	addi	sp,sp,-16
    2074:	842a                	mv	s0,a0
    2076:	c62e                	sw	a1,12(sp)
    2078:	c432                	sw	a2,8(sp)
    207a:	3675                	jal	1c26 <vPortEnterCritical>
    207c:	04444783          	lbu	a5,68(s0)
    2080:	577d                	li	a4,-1
    2082:	4622                	lw	a2,8(sp)
    2084:	07e2                	slli	a5,a5,0x18
    2086:	87e1                	srai	a5,a5,0x18
    2088:	45b2                	lw	a1,12(sp)
    208a:	00e79463          	bne	a5,a4,2092 <vQueueWaitForMessageRestricted+0x24>
    208e:	04040223          	sb	zero,68(s0)
    2092:	04544783          	lbu	a5,69(s0)
    2096:	577d                	li	a4,-1
    2098:	07e2                	slli	a5,a5,0x18
    209a:	87e1                	srai	a5,a5,0x18
    209c:	00e79463          	bne	a5,a4,20a4 <vQueueWaitForMessageRestricted+0x36>
    20a0:	040402a3          	sb	zero,69(s0)
    20a4:	c632                	sw	a2,12(sp)
    20a6:	c42e                	sw	a1,8(sp)
    20a8:	3e51                	jal	1c3c <vPortExitCritical>
    20aa:	5c1c                	lw	a5,56(s0)
    20ac:	45a2                	lw	a1,8(sp)
    20ae:	4632                	lw	a2,12(sp)
    20b0:	e789                	bnez	a5,20ba <vQueueWaitForMessageRestricted+0x4c>
    20b2:	02440513          	addi	a0,s0,36
    20b6:	029000ef          	jal	ra,28de <vTaskPlaceOnEventListRestricted>
    20ba:	8522                	mv	a0,s0
    20bc:	31b5                	jal	1d28 <prvUnlockQueue>
    20be:	0141                	addi	sp,sp,16
    20c0:	c7afe06f          	j	53a <__riscv_restore_0>

000020c4 <prvResetNextTaskUnblockTime>:
    20c4:	20000737          	lui	a4,0x20000
    20c8:	0d070713          	addi	a4,a4,208 # 200000d0 <pxDelayedTaskList>
    20cc:	431c                	lw	a5,0(a4)
    20ce:	4394                	lw	a3,0(a5)
    20d0:	200007b7          	lui	a5,0x20000
    20d4:	0f078793          	addi	a5,a5,240 # 200000f0 <xNextTaskUnblockTime>
    20d8:	e681                	bnez	a3,20e0 <prvResetNextTaskUnblockTime+0x1c>
    20da:	577d                	li	a4,-1
    20dc:	c398                	sw	a4,0(a5)
    20de:	8082                	ret
    20e0:	4318                	lw	a4,0(a4)
    20e2:	4758                	lw	a4,12(a4)
    20e4:	4318                	lw	a4,0(a4)
    20e6:	bfdd                	j	20dc <prvResetNextTaskUnblockTime+0x18>

000020e8 <prvAddCurrentTaskToDelayedList>:
    20e8:	c14fe2ef          	jal	t0,4fc <__riscv_save_4>
    20ec:	20000937          	lui	s2,0x20000
    20f0:	200007b7          	lui	a5,0x20000
    20f4:	0cc90493          	addi	s1,s2,204 # 200000cc <pxCurrentTCB>
    20f8:	1007a983          	lw	s3,256(a5) # 20000100 <xTickCount>
    20fc:	842a                	mv	s0,a0
    20fe:	409c                	lw	a5,0(s1)
    2100:	4088                	lw	a0,0(s1)
    2102:	1141                	addi	sp,sp,-16
    2104:	040788a3          	sb	zero,81(a5)
    2108:	0511                	addi	a0,a0,4
    210a:	c62e                	sw	a1,12(sp)
    210c:	3e6d                	jal	1cc6 <uxListRemove>
    210e:	577d                	li	a4,-1
    2110:	0cc90793          	addi	a5,s2,204
    2114:	45b2                	lw	a1,12(sp)
    2116:	02e41c63          	bne	s0,a4,214e <prvAddCurrentTaskToDelayedList+0x66>
    211a:	c995                	beqz	a1,214e <prvAddCurrentTaskToDelayedList+0x66>
    211c:	200037b7          	lui	a5,0x20003
    2120:	7dc78793          	addi	a5,a5,2012 # 200037dc <xSuspendedTaskList>
    2124:	4094                	lw	a3,0(s1)
    2126:	43d8                	lw	a4,4(a5)
    2128:	c698                	sw	a4,8(a3)
    212a:	4710                	lw	a2,8(a4)
    212c:	4094                	lw	a3,0(s1)
    212e:	c6d0                	sw	a2,12(a3)
    2130:	4094                	lw	a3,0(s1)
    2132:	4710                	lw	a2,8(a4)
    2134:	0691                	addi	a3,a3,4
    2136:	c254                	sw	a3,4(a2)
    2138:	4094                	lw	a3,0(s1)
    213a:	0691                	addi	a3,a3,4
    213c:	c714                	sw	a3,8(a4)
    213e:	4098                	lw	a4,0(s1)
    2140:	cb5c                	sw	a5,20(a4)
    2142:	4398                	lw	a4,0(a5)
    2144:	0705                	addi	a4,a4,1
    2146:	c398                	sw	a4,0(a5)
    2148:	0141                	addi	sp,sp,16
    214a:	be6fe06f          	j	530 <__riscv_restore_4>
    214e:	4398                	lw	a4,0(a5)
    2150:	944e                	add	s0,s0,s3
    2152:	c340                	sw	s0,4(a4)
    2154:	01347a63          	bgeu	s0,s3,2168 <prvAddCurrentTaskToDelayedList+0x80>
    2158:	20000737          	lui	a4,0x20000
    215c:	0d472503          	lw	a0,212(a4) # 200000d4 <pxOverflowDelayedTaskList>
    2160:	438c                	lw	a1,0(a5)
    2162:	0591                	addi	a1,a1,4
    2164:	3e15                	jal	1c98 <vListInsert>
    2166:	b7cd                	j	2148 <prvAddCurrentTaskToDelayedList+0x60>
    2168:	20000737          	lui	a4,0x20000
    216c:	0d072503          	lw	a0,208(a4) # 200000d0 <pxDelayedTaskList>
    2170:	438c                	lw	a1,0(a5)
    2172:	0591                	addi	a1,a1,4
    2174:	b25ff0ef          	jal	ra,1c98 <vListInsert>
    2178:	200007b7          	lui	a5,0x20000
    217c:	0f078793          	addi	a5,a5,240 # 200000f0 <xNextTaskUnblockTime>
    2180:	4398                	lw	a4,0(a5)
    2182:	fce473e3          	bgeu	s0,a4,2148 <prvAddCurrentTaskToDelayedList+0x60>
    2186:	c380                	sw	s0,0(a5)
    2188:	b7c1                	j	2148 <prvAddCurrentTaskToDelayedList+0x60>

0000218a <prvIdleTask>:
    218a:	b72fe2ef          	jal	t0,4fc <__riscv_save_4>
    218e:	20003437          	lui	s0,0x20003
    2192:	200009b7          	lui	s3,0x20000
    2196:	7f040413          	addi	s0,s0,2032 # 200037f0 <xTasksWaitingTermination>
    219a:	20000a37          	lui	s4,0x20000
    219e:	0dc98493          	addi	s1,s3,220 # 200000dc <uxDeletedTasksWaitingCleanUp>
    21a2:	409c                	lw	a5,0(s1)
    21a4:	dfed                	beqz	a5,219e <prvIdleTask+0x14>
    21a6:	a81ff0ef          	jal	ra,1c26 <vPortEnterCritical>
    21aa:	445c                	lw	a5,12(s0)
    21ac:	00c7a903          	lw	s2,12(a5)
    21b0:	00490513          	addi	a0,s2,4
    21b4:	b13ff0ef          	jal	ra,1cc6 <uxListRemove>
    21b8:	0d8a0713          	addi	a4,s4,216 # 200000d8 <uxCurrentNumberOfTasks>
    21bc:	431c                	lw	a5,0(a4)
    21be:	17fd                	addi	a5,a5,-1
    21c0:	c31c                	sw	a5,0(a4)
    21c2:	409c                	lw	a5,0(s1)
    21c4:	17fd                	addi	a5,a5,-1
    21c6:	c09c                	sw	a5,0(s1)
    21c8:	a75ff0ef          	jal	ra,1c3c <vPortExitCritical>
    21cc:	03092503          	lw	a0,48(s2)
    21d0:	8adff0ef          	jal	ra,1a7c <vPortFree>
    21d4:	854a                	mv	a0,s2
    21d6:	8a7ff0ef          	jal	ra,1a7c <vPortFree>
    21da:	b7d1                	j	219e <prvIdleTask+0x14>

000021dc <xTaskCreate>:
    21dc:	b12fe2ef          	jal	t0,4ee <__riscv_save_10>
    21e0:	00261913          	slli	s2,a2,0x2
    21e4:	8aaa                	mv	s5,a0
    21e6:	854a                	mv	a0,s2
    21e8:	8a2e                	mv	s4,a1
    21ea:	8b36                	mv	s6,a3
    21ec:	8bba                	mv	s7,a4
    21ee:	89be                	mv	s3,a5
    21f0:	f02ff0ef          	jal	ra,18f2 <pvPortMalloc>
    21f4:	c11d                	beqz	a0,221a <xTaskCreate+0x3e>
    21f6:	84aa                	mv	s1,a0
    21f8:	05400513          	li	a0,84
    21fc:	ef6ff0ef          	jal	ra,18f2 <pvPortMalloc>
    2200:	842a                	mv	s0,a0
    2202:	c909                	beqz	a0,2214 <xTaskCreate+0x38>
    2204:	d904                	sw	s1,48(a0)
    2206:	4781                	li	a5,0
    2208:	46c1                	li	a3,16
    220a:	000a1a63          	bnez	s4,221e <xTaskCreate+0x42>
    220e:	02050a23          	sb	zero,52(a0)
    2212:	a025                	j	223a <xTaskCreate+0x5e>
    2214:	8526                	mv	a0,s1
    2216:	867ff0ef          	jal	ra,1a7c <vPortFree>
    221a:	557d                	li	a0,-1
    221c:	a265                	j	23c4 <xTaskCreate+0x1e8>
    221e:	00fa0733          	add	a4,s4,a5
    2222:	00070703          	lb	a4,0(a4)
    2226:	00f40633          	add	a2,s0,a5
    222a:	02e60a23          	sb	a4,52(a2)
    222e:	c701                	beqz	a4,2236 <xTaskCreate+0x5a>
    2230:	0785                	addi	a5,a5,1
    2232:	fed796e3          	bne	a5,a3,221e <xTaskCreate+0x42>
    2236:	040401a3          	sb	zero,67(s0)
    223a:	47b9                	li	a5,14
    223c:	0377f463          	bgeu	a5,s7,2264 <xTaskCreate+0x88>
    2240:	67a1                	lui	a5,0x8
    2242:	80078793          	addi	a5,a5,-2048 # 7800 <_data_lma+0x328c>
    2246:	30079073          	csrw	mstatus,a5
    224a:	00004637          	lui	a2,0x4
    224e:	00004537          	lui	a0,0x4
    2252:	47060613          	addi	a2,a2,1136 # 4470 <_read+0x164>
    2256:	39700593          	li	a1,919
    225a:	41050513          	addi	a0,a0,1040 # 4410 <_read+0x104>
    225e:	5ef000ef          	jal	ra,304c <iprintf>
    2262:	a001                	j	2262 <xTaskCreate+0x86>
    2264:	00440a13          	addi	s4,s0,4
    2268:	8552                	mv	a0,s4
    226a:	03742623          	sw	s7,44(s0)
    226e:	05742223          	sw	s7,68(s0)
    2272:	04042423          	sw	zero,72(s0)
    2276:	a1dff0ef          	jal	ra,1c92 <vListInitialiseItem>
    227a:	01840513          	addi	a0,s0,24
    227e:	a15ff0ef          	jal	ra,1c92 <vListInitialiseItem>
    2282:	473d                	li	a4,15
    2284:	ffc90513          	addi	a0,s2,-4
    2288:	41770733          	sub	a4,a4,s7
    228c:	9526                	add	a0,a0,s1
    228e:	c800                	sw	s0,16(s0)
    2290:	cc18                	sw	a4,24(s0)
    2292:	d040                	sw	s0,36(s0)
    2294:	04040623          	sb	zero,76(s0)
    2298:	040406a3          	sb	zero,77(s0)
    229c:	04040723          	sb	zero,78(s0)
    22a0:	040407a3          	sb	zero,79(s0)
    22a4:	04040823          	sb	zero,80(s0)
    22a8:	040408a3          	sb	zero,81(s0)
    22ac:	865a                	mv	a2,s6
    22ae:	85d6                	mv	a1,s5
    22b0:	9941                	andi	a0,a0,-16
    22b2:	94efe0ef          	jal	ra,400 <pxPortInitialiseStack>
    22b6:	c008                	sw	a0,0(s0)
    22b8:	00098463          	beqz	s3,22c0 <xTaskCreate+0xe4>
    22bc:	0089a023          	sw	s0,0(s3)
    22c0:	967ff0ef          	jal	ra,1c26 <vPortEnterCritical>
    22c4:	200007b7          	lui	a5,0x20000
    22c8:	0d878793          	addi	a5,a5,216 # 200000d8 <uxCurrentNumberOfTasks>
    22cc:	4398                	lw	a4,0(a5)
    22ce:	200004b7          	lui	s1,0x20000
    22d2:	200039b7          	lui	s3,0x20003
    22d6:	0705                	addi	a4,a4,1
    22d8:	c398                	sw	a4,0(a5)
    22da:	0cc48713          	addi	a4,s1,204 # 200000cc <pxCurrentTCB>
    22de:	4318                	lw	a4,0(a4)
    22e0:	0cc48493          	addi	s1,s1,204
    22e4:	67498913          	addi	s2,s3,1652 # 20003674 <pxReadyTasksLists>
    22e8:	0e071063          	bnez	a4,23c8 <xTaskCreate+0x1ec>
    22ec:	c080                	sw	s0,0(s1)
    22ee:	4398                	lw	a4,0(a5)
    22f0:	4785                	li	a5,1
    22f2:	06f71663          	bne	a4,a5,235e <xTaskCreate+0x182>
    22f6:	67498993          	addi	s3,s3,1652
    22fa:	12c90a93          	addi	s5,s2,300
    22fe:	854e                	mv	a0,s3
    2300:	09d1                	addi	s3,s3,20
    2302:	97dff0ef          	jal	ra,1c7e <vListInitialise>
    2306:	ff3a9ce3          	bne	s5,s3,22fe <xTaskCreate+0x122>
    230a:	20003537          	lui	a0,0x20003
    230e:	7a050a93          	addi	s5,a0,1952 # 200037a0 <xDelayedTaskList1>
    2312:	7a050513          	addi	a0,a0,1952
    2316:	969ff0ef          	jal	ra,1c7e <vListInitialise>
    231a:	20003537          	lui	a0,0x20003
    231e:	7b450993          	addi	s3,a0,1972 # 200037b4 <xDelayedTaskList2>
    2322:	7b450513          	addi	a0,a0,1972
    2326:	959ff0ef          	jal	ra,1c7e <vListInitialise>
    232a:	20003537          	lui	a0,0x20003
    232e:	7c850513          	addi	a0,a0,1992 # 200037c8 <xPendingReadyList>
    2332:	94dff0ef          	jal	ra,1c7e <vListInitialise>
    2336:	20003537          	lui	a0,0x20003
    233a:	7f050513          	addi	a0,a0,2032 # 200037f0 <xTasksWaitingTermination>
    233e:	941ff0ef          	jal	ra,1c7e <vListInitialise>
    2342:	20003537          	lui	a0,0x20003
    2346:	7dc50513          	addi	a0,a0,2012 # 200037dc <xSuspendedTaskList>
    234a:	935ff0ef          	jal	ra,1c7e <vListInitialise>
    234e:	200007b7          	lui	a5,0x20000
    2352:	0d57a823          	sw	s5,208(a5) # 200000d0 <pxDelayedTaskList>
    2356:	200007b7          	lui	a5,0x20000
    235a:	0d37aa23          	sw	s3,212(a5) # 200000d4 <pxOverflowDelayedTaskList>
    235e:	200007b7          	lui	a5,0x20000
    2362:	0e478793          	addi	a5,a5,228 # 200000e4 <uxTaskNumber>
    2366:	4398                	lw	a4,0(a5)
    2368:	0705                	addi	a4,a4,1
    236a:	c398                	sw	a4,0(a5)
    236c:	20000737          	lui	a4,0x20000
    2370:	0e870713          	addi	a4,a4,232 # 200000e8 <uxTopReadyPriority>
    2374:	545c                	lw	a5,44(s0)
    2376:	4314                	lw	a3,0(a4)
    2378:	00f6f363          	bgeu	a3,a5,237e <xTaskCreate+0x1a2>
    237c:	c31c                	sw	a5,0(a4)
    237e:	4751                	li	a4,20
    2380:	02e787b3          	mul	a5,a5,a4
    2384:	97ca                	add	a5,a5,s2
    2386:	43d8                	lw	a4,4(a5)
    2388:	4714                	lw	a3,8(a4)
    238a:	c418                	sw	a4,8(s0)
    238c:	c454                	sw	a3,12(s0)
    238e:	4714                	lw	a3,8(a4)
    2390:	0146a223          	sw	s4,4(a3)
    2394:	01472423          	sw	s4,8(a4)
    2398:	4398                	lw	a4,0(a5)
    239a:	c85c                	sw	a5,20(s0)
    239c:	0705                	addi	a4,a4,1
    239e:	c398                	sw	a4,0(a5)
    23a0:	89dff0ef          	jal	ra,1c3c <vPortExitCritical>
    23a4:	200007b7          	lui	a5,0x20000
    23a8:	0fc7a783          	lw	a5,252(a5) # 200000fc <xSchedulerRunning>
    23ac:	4505                	li	a0,1
    23ae:	cb99                	beqz	a5,23c4 <xTaskCreate+0x1e8>
    23b0:	409c                	lw	a5,0(s1)
    23b2:	57d8                	lw	a4,44(a5)
    23b4:	545c                	lw	a5,44(s0)
    23b6:	00f77763          	bgeu	a4,a5,23c4 <xTaskCreate+0x1e8>
    23ba:	e000e7b7          	lui	a5,0xe000e
    23be:	6711                	lui	a4,0x4
    23c0:	20e7a023          	sw	a4,512(a5) # e000e200 <__freertos_irq_stack_top+0xbfffe200>
    23c4:	962fe06f          	j	526 <__riscv_restore_10>
    23c8:	200007b7          	lui	a5,0x20000
    23cc:	0fc7a783          	lw	a5,252(a5) # 200000fc <xSchedulerRunning>
    23d0:	f7d9                	bnez	a5,235e <xTaskCreate+0x182>
    23d2:	409c                	lw	a5,0(s1)
    23d4:	57d8                	lw	a4,44(a5)
    23d6:	545c                	lw	a5,44(s0)
    23d8:	f8e7e3e3          	bltu	a5,a4,235e <xTaskCreate+0x182>
    23dc:	c080                	sw	s0,0(s1)
    23de:	b741                	j	235e <xTaskCreate+0x182>

000023e0 <vTaskStartScheduler>:
    23e0:	936fe2ef          	jal	t0,516 <__riscv_save_0>
    23e4:	200007b7          	lui	a5,0x20000
    23e8:	000045b7          	lui	a1,0x4
    23ec:	00002537          	lui	a0,0x2
    23f0:	0ec78793          	addi	a5,a5,236 # 200000ec <xIdleTaskHandle>
    23f4:	4701                	li	a4,0
    23f6:	4681                	li	a3,0
    23f8:	10000613          	li	a2,256
    23fc:	48458593          	addi	a1,a1,1156 # 4484 <_read+0x178>
    2400:	18a50513          	addi	a0,a0,394 # 218a <prvIdleTask>
    2404:	3be1                	jal	21dc <xTaskCreate>
    2406:	4405                	li	s0,1
    2408:	02851e63          	bne	a0,s0,2444 <vTaskStartScheduler+0x64>
    240c:	205000ef          	jal	ra,2e10 <xTimerCreateTimerTask>
    2410:	02851a63          	bne	a0,s0,2444 <vTaskStartScheduler+0x64>
    2414:	67a1                	lui	a5,0x8
    2416:	80078793          	addi	a5,a5,-2048 # 7800 <_data_lma+0x328c>
    241a:	30079073          	csrw	mstatus,a5
    241e:	200007b7          	lui	a5,0x20000
    2422:	577d                	li	a4,-1
    2424:	0ee7a823          	sw	a4,240(a5) # 200000f0 <xNextTaskUnblockTime>
    2428:	200007b7          	lui	a5,0x20000
    242c:	0ea7ae23          	sw	a0,252(a5) # 200000fc <xSchedulerRunning>
    2430:	200007b7          	lui	a5,0x20000
    2434:	1007a023          	sw	zero,256(a5) # 20000100 <xTickCount>
    2438:	f28ff0ef          	jal	ra,1b60 <xPortStartScheduler>
    243c:	80c1a783          	lw	a5,-2036(gp) # 2000008c <uxTopUsedPriority>
    2440:	8fafe06f          	j	53a <__riscv_restore_0>
    2444:	57fd                	li	a5,-1
    2446:	fef51be3          	bne	a0,a5,243c <vTaskStartScheduler+0x5c>
    244a:	67a1                	lui	a5,0x8
    244c:	80078793          	addi	a5,a5,-2048 # 7800 <_data_lma+0x328c>
    2450:	30079073          	csrw	mstatus,a5
    2454:	00004637          	lui	a2,0x4
    2458:	6585                	lui	a1,0x1
    245a:	00004537          	lui	a0,0x4
    245e:	47060613          	addi	a2,a2,1136 # 4470 <_read+0x164>
    2462:	84058593          	addi	a1,a1,-1984 # 840 <__stack_size+0x40>
    2466:	41050513          	addi	a0,a0,1040 # 4410 <_read+0x104>
    246a:	3e3000ef          	jal	ra,304c <iprintf>
    246e:	a001                	j	246e <vTaskStartScheduler+0x8e>

00002470 <vTaskSuspendAll>:
    2470:	200007b7          	lui	a5,0x20000
    2474:	0e078793          	addi	a5,a5,224 # 200000e0 <uxSchedulerSuspended>
    2478:	4398                	lw	a4,0(a5)
    247a:	0705                	addi	a4,a4,1
    247c:	c398                	sw	a4,0(a5)
    247e:	8082                	ret

00002480 <xTaskGetTickCount>:
    2480:	200007b7          	lui	a5,0x20000
    2484:	1007a503          	lw	a0,256(a5) # 20000100 <xTickCount>
    2488:	8082                	ret

0000248a <xTaskIncrementTick>:
    248a:	200007b7          	lui	a5,0x20000
    248e:	0e07a783          	lw	a5,224(a5) # 200000e0 <uxSchedulerSuspended>
    2492:	18079863          	bnez	a5,2622 <xTaskIncrementTick+0x198>
    2496:	880fe2ef          	jal	t0,516 <__riscv_save_0>
    249a:	200007b7          	lui	a5,0x20000
    249e:	10078793          	addi	a5,a5,256 # 20000100 <xTickCount>
    24a2:	4380                	lw	s0,0(a5)
    24a4:	0405                	addi	s0,s0,1
    24a6:	c380                	sw	s0,0(a5)
    24a8:	e839                	bnez	s0,24fe <xTaskIncrementTick+0x74>
    24aa:	200007b7          	lui	a5,0x20000
    24ae:	0d078793          	addi	a5,a5,208 # 200000d0 <pxDelayedTaskList>
    24b2:	4398                	lw	a4,0(a5)
    24b4:	4318                	lw	a4,0(a4)
    24b6:	c705                	beqz	a4,24de <xTaskIncrementTick+0x54>
    24b8:	67a1                	lui	a5,0x8
    24ba:	80078793          	addi	a5,a5,-2048 # 7800 <_data_lma+0x328c>
    24be:	30079073          	csrw	mstatus,a5
    24c2:	00004637          	lui	a2,0x4
    24c6:	6585                	lui	a1,0x1
    24c8:	00004537          	lui	a0,0x4
    24cc:	47060613          	addi	a2,a2,1136 # 4470 <_read+0x164>
    24d0:	ac758593          	addi	a1,a1,-1337 # ac7 <CAN_task+0x2b>
    24d4:	41050513          	addi	a0,a0,1040 # 4410 <_read+0x104>
    24d8:	375000ef          	jal	ra,304c <iprintf>
    24dc:	a001                	j	24dc <xTaskIncrementTick+0x52>
    24de:	20000737          	lui	a4,0x20000
    24e2:	0d470713          	addi	a4,a4,212 # 200000d4 <pxOverflowDelayedTaskList>
    24e6:	4394                	lw	a3,0(a5)
    24e8:	4310                	lw	a2,0(a4)
    24ea:	c390                	sw	a2,0(a5)
    24ec:	200007b7          	lui	a5,0x20000
    24f0:	c314                	sw	a3,0(a4)
    24f2:	0f478793          	addi	a5,a5,244 # 200000f4 <xNumOfOverflows>
    24f6:	4398                	lw	a4,0(a5)
    24f8:	0705                	addi	a4,a4,1
    24fa:	c398                	sw	a4,0(a5)
    24fc:	36e1                	jal	20c4 <prvResetNextTaskUnblockTime>
    24fe:	20000637          	lui	a2,0x20000
    2502:	0f060793          	addi	a5,a2,240 # 200000f0 <xNextTaskUnblockTime>
    2506:	439c                	lw	a5,0(a5)
    2508:	20003737          	lui	a4,0x20003
    250c:	200005b7          	lui	a1,0x20000
    2510:	0f060613          	addi	a2,a2,240
    2514:	67470713          	addi	a4,a4,1652 # 20003674 <pxReadyTasksLists>
    2518:	0cc58593          	addi	a1,a1,204 # 200000cc <pxCurrentTCB>
    251c:	4501                	li	a0,0
    251e:	02f47563          	bgeu	s0,a5,2548 <xTaskIncrementTick+0xbe>
    2522:	419c                	lw	a5,0(a1)
    2524:	46d1                	li	a3,20
    2526:	57dc                	lw	a5,44(a5)
    2528:	02d787b3          	mul	a5,a5,a3
    252c:	973e                	add	a4,a4,a5
    252e:	4318                	lw	a4,0(a4)
    2530:	4785                	li	a5,1
    2532:	00e7f363          	bgeu	a5,a4,2538 <xTaskIncrementTick+0xae>
    2536:	4505                	li	a0,1
    2538:	200007b7          	lui	a5,0x20000
    253c:	1047a783          	lw	a5,260(a5) # 20000104 <xYieldPending>
    2540:	c391                	beqz	a5,2544 <xTaskIncrementTick+0xba>
    2542:	4505                	li	a0,1
    2544:	ff7fd06f          	j	53a <__riscv_restore_0>
    2548:	20000e37          	lui	t3,0x20000
    254c:	20000eb7          	lui	t4,0x20000
    2550:	4f51                	li	t5,20
    2552:	0d0e0793          	addi	a5,t3,208 # 200000d0 <pxDelayedTaskList>
    2556:	4394                	lw	a3,0(a5)
    2558:	4294                	lw	a3,0(a3)
    255a:	e681                	bnez	a3,2562 <xTaskIncrementTick+0xd8>
    255c:	57fd                	li	a5,-1
    255e:	c21c                	sw	a5,0(a2)
    2560:	b7c9                	j	2522 <xTaskIncrementTick+0x98>
    2562:	439c                	lw	a5,0(a5)
    2564:	47dc                	lw	a5,12(a5)
    2566:	47dc                	lw	a5,12(a5)
    2568:	43d4                	lw	a3,4(a5)
    256a:	00d47463          	bgeu	s0,a3,2572 <xTaskIncrementTick+0xe8>
    256e:	c214                	sw	a3,0(a2)
    2570:	bf4d                	j	2522 <xTaskIncrementTick+0x98>
    2572:	0087a883          	lw	a7,8(a5)
    2576:	00c7a803          	lw	a6,12(a5)
    257a:	4bd4                	lw	a3,20(a5)
    257c:	00478313          	addi	t1,a5,4
    2580:	0108a423          	sw	a6,8(a7)
    2584:	01182223          	sw	a7,4(a6)
    2588:	0046a883          	lw	a7,4(a3)
    258c:	00689463          	bne	a7,t1,2594 <xTaskIncrementTick+0x10a>
    2590:	0106a223          	sw	a6,4(a3)
    2594:	0006a803          	lw	a6,0(a3)
    2598:	0007aa23          	sw	zero,20(a5)
    259c:	187d                	addi	a6,a6,-1
    259e:	0106a023          	sw	a6,0(a3)
    25a2:	5794                	lw	a3,40(a5)
    25a4:	ca95                	beqz	a3,25d8 <xTaskIncrementTick+0x14e>
    25a6:	01c7a803          	lw	a6,28(a5)
    25aa:	0207a883          	lw	a7,32(a5)
    25ae:	0046af83          	lw	t6,4(a3)
    25b2:	01182423          	sw	a7,8(a6)
    25b6:	0207a883          	lw	a7,32(a5)
    25ba:	0108a223          	sw	a6,4(a7)
    25be:	01878813          	addi	a6,a5,24
    25c2:	010f9463          	bne	t6,a6,25ca <xTaskIncrementTick+0x140>
    25c6:	0116a223          	sw	a7,4(a3)
    25ca:	0006a803          	lw	a6,0(a3)
    25ce:	0207a423          	sw	zero,40(a5)
    25d2:	187d                	addi	a6,a6,-1
    25d4:	0106a023          	sw	a6,0(a3)
    25d8:	0e8e8693          	addi	a3,t4,232 # 200000e8 <uxTopReadyPriority>
    25dc:	02c7a803          	lw	a6,44(a5)
    25e0:	0006a883          	lw	a7,0(a3)
    25e4:	0108f463          	bgeu	a7,a6,25ec <xTaskIncrementTick+0x162>
    25e8:	0106a023          	sw	a6,0(a3)
    25ec:	03e806b3          	mul	a3,a6,t5
    25f0:	96ba                	add	a3,a3,a4
    25f2:	0046a883          	lw	a7,4(a3)
    25f6:	0088af83          	lw	t6,8(a7)
    25fa:	0117a423          	sw	a7,8(a5)
    25fe:	01f7a623          	sw	t6,12(a5)
    2602:	0088af83          	lw	t6,8(a7)
    2606:	006fa223          	sw	t1,4(t6)
    260a:	0068a423          	sw	t1,8(a7)
    260e:	cbd4                	sw	a3,20(a5)
    2610:	429c                	lw	a5,0(a3)
    2612:	0785                	addi	a5,a5,1
    2614:	c29c                	sw	a5,0(a3)
    2616:	419c                	lw	a5,0(a1)
    2618:	57dc                	lw	a5,44(a5)
    261a:	f2f86ce3          	bltu	a6,a5,2552 <xTaskIncrementTick+0xc8>
    261e:	4505                	li	a0,1
    2620:	bf0d                	j	2552 <xTaskIncrementTick+0xc8>
    2622:	200007b7          	lui	a5,0x20000
    2626:	0f878793          	addi	a5,a5,248 # 200000f8 <xPendedTicks>
    262a:	4398                	lw	a4,0(a5)
    262c:	4501                	li	a0,0
    262e:	0705                	addi	a4,a4,1
    2630:	c398                	sw	a4,0(a5)
    2632:	8082                	ret

00002634 <xTaskResumeAll>:
    2634:	ec9fd2ef          	jal	t0,4fc <__riscv_save_4>
    2638:	20000437          	lui	s0,0x20000
    263c:	0e040413          	addi	s0,s0,224 # 200000e0 <uxSchedulerSuspended>
    2640:	401c                	lw	a5,0(s0)
    2642:	1141                	addi	sp,sp,-16
    2644:	e785                	bnez	a5,266c <xTaskResumeAll+0x38>
    2646:	67a1                	lui	a5,0x8
    2648:	80078793          	addi	a5,a5,-2048 # 7800 <_data_lma+0x328c>
    264c:	30079073          	csrw	mstatus,a5
    2650:	00004637          	lui	a2,0x4
    2654:	6585                	lui	a1,0x1
    2656:	00004537          	lui	a0,0x4
    265a:	47060613          	addi	a2,a2,1136 # 4470 <_read+0x164>
    265e:	8b358593          	addi	a1,a1,-1869 # 8b3 <DMA_INIT+0x43>
    2662:	41050513          	addi	a0,a0,1040 # 4410 <_read+0x104>
    2666:	1e7000ef          	jal	ra,304c <iprintf>
    266a:	a001                	j	266a <xTaskResumeAll+0x36>
    266c:	dbaff0ef          	jal	ra,1c26 <vPortEnterCritical>
    2670:	401c                	lw	a5,0(s0)
    2672:	17fd                	addi	a5,a5,-1
    2674:	c01c                	sw	a5,0(s0)
    2676:	401c                	lw	a5,0(s0)
    2678:	cb89                	beqz	a5,268a <xTaskResumeAll+0x56>
    267a:	4501                	li	a0,0
    267c:	c62a                	sw	a0,12(sp)
    267e:	dbeff0ef          	jal	ra,1c3c <vPortExitCritical>
    2682:	4532                	lw	a0,12(sp)
    2684:	0141                	addi	sp,sp,16
    2686:	eabfd06f          	j	530 <__riscv_restore_4>
    268a:	200007b7          	lui	a5,0x20000
    268e:	0d87a783          	lw	a5,216(a5) # 200000d8 <uxCurrentNumberOfTasks>
    2692:	d7e5                	beqz	a5,267a <xTaskResumeAll+0x46>
    2694:	200036b7          	lui	a3,0x20003
    2698:	20003537          	lui	a0,0x20003
    269c:	4781                	li	a5,0
    269e:	7c868693          	addi	a3,a3,1992 # 200037c8 <xPendingReadyList>
    26a2:	20000f37          	lui	t5,0x20000
    26a6:	67450513          	addi	a0,a0,1652 # 20003674 <pxReadyTasksLists>
    26aa:	48d1                	li	a7,20
    26ac:	20000337          	lui	t1,0x20000
    26b0:	20000e37          	lui	t3,0x20000
    26b4:	4e85                	li	t4,1
    26b6:	a859                	j	274c <xTaskResumeAll+0x118>
    26b8:	46dc                	lw	a5,12(a3)
    26ba:	47dc                	lw	a5,12(a5)
    26bc:	4fcc                	lw	a1,28(a5)
    26be:	5390                	lw	a2,32(a5)
    26c0:	5798                	lw	a4,40(a5)
    26c2:	c590                	sw	a2,8(a1)
    26c4:	0207a803          	lw	a6,32(a5)
    26c8:	00b82223          	sw	a1,4(a6)
    26cc:	00472803          	lw	a6,4(a4)
    26d0:	01878593          	addi	a1,a5,24
    26d4:	00b81363          	bne	a6,a1,26da <xTaskResumeAll+0xa6>
    26d8:	c350                	sw	a2,4(a4)
    26da:	4310                	lw	a2,0(a4)
    26dc:	0207a423          	sw	zero,40(a5)
    26e0:	167d                	addi	a2,a2,-1
    26e2:	c310                	sw	a2,0(a4)
    26e4:	478c                	lw	a1,8(a5)
    26e6:	47d0                	lw	a2,12(a5)
    26e8:	4bd8                	lw	a4,20(a5)
    26ea:	00478813          	addi	a6,a5,4
    26ee:	c590                	sw	a2,8(a1)
    26f0:	c24c                	sw	a1,4(a2)
    26f2:	434c                	lw	a1,4(a4)
    26f4:	01059363          	bne	a1,a6,26fa <xTaskResumeAll+0xc6>
    26f8:	c350                	sw	a2,4(a4)
    26fa:	4310                	lw	a2,0(a4)
    26fc:	0007aa23          	sw	zero,20(a5)
    2700:	167d                	addi	a2,a2,-1
    2702:	c310                	sw	a2,0(a4)
    2704:	0e8f0713          	addi	a4,t5,232 # 200000e8 <uxTopReadyPriority>
    2708:	57d0                	lw	a2,44(a5)
    270a:	430c                	lw	a1,0(a4)
    270c:	00c5f363          	bgeu	a1,a2,2712 <xTaskResumeAll+0xde>
    2710:	c310                	sw	a2,0(a4)
    2712:	03160733          	mul	a4,a2,a7
    2716:	972a                	add	a4,a4,a0
    2718:	434c                	lw	a1,4(a4)
    271a:	0085af83          	lw	t6,8(a1)
    271e:	c78c                	sw	a1,8(a5)
    2720:	01f7a623          	sw	t6,12(a5)
    2724:	0085af83          	lw	t6,8(a1)
    2728:	010fa223          	sw	a6,4(t6)
    272c:	0105a423          	sw	a6,8(a1)
    2730:	430c                	lw	a1,0(a4)
    2732:	cbd8                	sw	a4,20(a5)
    2734:	0585                	addi	a1,a1,1
    2736:	c30c                	sw	a1,0(a4)
    2738:	0cc30713          	addi	a4,t1,204 # 200000cc <pxCurrentTCB>
    273c:	4318                	lw	a4,0(a4)
    273e:	5758                	lw	a4,44(a4)
    2740:	00e66663          	bltu	a2,a4,274c <xTaskResumeAll+0x118>
    2744:	104e0713          	addi	a4,t3,260 # 20000104 <xYieldPending>
    2748:	01d72023          	sw	t4,0(a4)
    274c:	4298                	lw	a4,0(a3)
    274e:	f72d                	bnez	a4,26b8 <xTaskResumeAll+0x84>
    2750:	c399                	beqz	a5,2756 <xTaskResumeAll+0x122>
    2752:	973ff0ef          	jal	ra,20c4 <prvResetNextTaskUnblockTime>
    2756:	200007b7          	lui	a5,0x20000
    275a:	0f878713          	addi	a4,a5,248 # 200000f8 <xPendedTicks>
    275e:	4304                	lw	s1,0(a4)
    2760:	0f878413          	addi	s0,a5,248
    2764:	cc91                	beqz	s1,2780 <xTaskResumeAll+0x14c>
    2766:	20000937          	lui	s2,0x20000
    276a:	4985                	li	s3,1
    276c:	3b39                	jal	248a <xTaskIncrementTick>
    276e:	c509                	beqz	a0,2778 <xTaskResumeAll+0x144>
    2770:	10490793          	addi	a5,s2,260 # 20000104 <xYieldPending>
    2774:	0137a023          	sw	s3,0(a5)
    2778:	14fd                	addi	s1,s1,-1
    277a:	f8ed                	bnez	s1,276c <xTaskResumeAll+0x138>
    277c:	00042023          	sw	zero,0(s0)
    2780:	200007b7          	lui	a5,0x20000
    2784:	1047a783          	lw	a5,260(a5) # 20000104 <xYieldPending>
    2788:	ee0789e3          	beqz	a5,267a <xTaskResumeAll+0x46>
    278c:	e000e7b7          	lui	a5,0xe000e
    2790:	6711                	lui	a4,0x4
    2792:	20e7a023          	sw	a4,512(a5) # e000e200 <__freertos_irq_stack_top+0xbfffe200>
    2796:	4505                	li	a0,1
    2798:	b5d5                	j	267c <xTaskResumeAll+0x48>

0000279a <vTaskDelay>:
    279a:	e519                	bnez	a0,27a8 <vTaskDelay+0xe>
    279c:	e000e7b7          	lui	a5,0xe000e
    27a0:	6711                	lui	a4,0x4
    27a2:	20e7a023          	sw	a4,512(a5) # e000e200 <__freertos_irq_stack_top+0xbfffe200>
    27a6:	8082                	ret
    27a8:	d6ffd2ef          	jal	t0,516 <__riscv_save_0>
    27ac:	200007b7          	lui	a5,0x20000
    27b0:	0e07a783          	lw	a5,224(a5) # 200000e0 <uxSchedulerSuspended>
    27b4:	1141                	addi	sp,sp,-16
    27b6:	c39d                	beqz	a5,27dc <vTaskDelay+0x42>
    27b8:	67a1                	lui	a5,0x8
    27ba:	80078793          	addi	a5,a5,-2048 # 7800 <_data_lma+0x328c>
    27be:	30079073          	csrw	mstatus,a5
    27c2:	00004637          	lui	a2,0x4
    27c6:	00004537          	lui	a0,0x4
    27ca:	47060613          	addi	a2,a2,1136 # 4470 <_read+0x164>
    27ce:	54900593          	li	a1,1353
    27d2:	41050513          	addi	a0,a0,1040 # 4410 <_read+0x104>
    27d6:	077000ef          	jal	ra,304c <iprintf>
    27da:	a001                	j	27da <vTaskDelay+0x40>
    27dc:	c62a                	sw	a0,12(sp)
    27de:	3949                	jal	2470 <vTaskSuspendAll>
    27e0:	4532                	lw	a0,12(sp)
    27e2:	4581                	li	a1,0
    27e4:	905ff0ef          	jal	ra,20e8 <prvAddCurrentTaskToDelayedList>
    27e8:	35b1                	jal	2634 <xTaskResumeAll>
    27ea:	e511                	bnez	a0,27f6 <vTaskDelay+0x5c>
    27ec:	e000e7b7          	lui	a5,0xe000e
    27f0:	6711                	lui	a4,0x4
    27f2:	20e7a023          	sw	a4,512(a5) # e000e200 <__freertos_irq_stack_top+0xbfffe200>
    27f6:	0141                	addi	sp,sp,16
    27f8:	d43fd06f          	j	53a <__riscv_restore_0>

000027fc <vTaskSwitchContext>:
    27fc:	200007b7          	lui	a5,0x20000
    2800:	0e07a703          	lw	a4,224(a5) # 200000e0 <uxSchedulerSuspended>
    2804:	200007b7          	lui	a5,0x20000
    2808:	10478793          	addi	a5,a5,260 # 20000104 <xYieldPending>
    280c:	c701                	beqz	a4,2814 <vTaskSwitchContext+0x18>
    280e:	4705                	li	a4,1
    2810:	c398                	sw	a4,0(a5)
    2812:	8082                	ret
    2814:	0007a023          	sw	zero,0(a5)
    2818:	200007b7          	lui	a5,0x20000
    281c:	0e878713          	addi	a4,a5,232 # 200000e8 <uxTopReadyPriority>
    2820:	4318                	lw	a4,0(a4)
    2822:	0e878613          	addi	a2,a5,232
    2826:	200037b7          	lui	a5,0x20003
    282a:	67478793          	addi	a5,a5,1652 # 20003674 <pxReadyTasksLists>
    282e:	4851                	li	a6,20
    2830:	030706b3          	mul	a3,a4,a6
    2834:	00d785b3          	add	a1,a5,a3
    2838:	4188                	lw	a0,0(a1)
    283a:	c515                	beqz	a0,2866 <vTaskSwitchContext+0x6a>
    283c:	41c8                	lw	a0,4(a1)
    283e:	06a1                	addi	a3,a3,8
    2840:	96be                	add	a3,a3,a5
    2842:	4148                	lw	a0,4(a0)
    2844:	c1c8                	sw	a0,4(a1)
    2846:	00d51463          	bne	a0,a3,284e <vTaskSwitchContext+0x52>
    284a:	4154                	lw	a3,4(a0)
    284c:	c1d4                	sw	a3,4(a1)
    284e:	46d1                	li	a3,20
    2850:	02d706b3          	mul	a3,a4,a3
    2854:	97b6                	add	a5,a5,a3
    2856:	43dc                	lw	a5,4(a5)
    2858:	47d4                	lw	a3,12(a5)
    285a:	200007b7          	lui	a5,0x20000
    285e:	0cd7a623          	sw	a3,204(a5) # 200000cc <pxCurrentTCB>
    2862:	c218                	sw	a4,0(a2)
    2864:	8082                	ret
    2866:	e715                	bnez	a4,2892 <vTaskSwitchContext+0x96>
    2868:	caffd2ef          	jal	t0,516 <__riscv_save_0>
    286c:	67a1                	lui	a5,0x8
    286e:	80078793          	addi	a5,a5,-2048 # 7800 <_data_lma+0x328c>
    2872:	30079073          	csrw	mstatus,a5
    2876:	00004637          	lui	a2,0x4
    287a:	6585                	lui	a1,0x1
    287c:	00004537          	lui	a0,0x4
    2880:	47060613          	addi	a2,a2,1136 # 4470 <_read+0x164>
    2884:	c0258593          	addi	a1,a1,-1022 # c02 <SystemInit+0x1c>
    2888:	41050513          	addi	a0,a0,1040 # 4410 <_read+0x104>
    288c:	7c0000ef          	jal	ra,304c <iprintf>
    2890:	a001                	j	2890 <vTaskSwitchContext+0x94>
    2892:	177d                	addi	a4,a4,-1
    2894:	bf71                	j	2830 <vTaskSwitchContext+0x34>

00002896 <vTaskPlaceOnEventList>:
    2896:	c81fd2ef          	jal	t0,516 <__riscv_save_0>
    289a:	e505                	bnez	a0,28c2 <vTaskPlaceOnEventList+0x2c>
    289c:	67a1                	lui	a5,0x8
    289e:	80078793          	addi	a5,a5,-2048 # 7800 <_data_lma+0x328c>
    28a2:	30079073          	csrw	mstatus,a5
    28a6:	00004637          	lui	a2,0x4
    28aa:	6585                	lui	a1,0x1
    28ac:	00004537          	lui	a0,0x4
    28b0:	47060613          	addi	a2,a2,1136 # 4470 <_read+0x164>
    28b4:	c1c58593          	addi	a1,a1,-996 # c1c <SystemInit+0x36>
    28b8:	41050513          	addi	a0,a0,1040 # 4410 <_read+0x104>
    28bc:	790000ef          	jal	ra,304c <iprintf>
    28c0:	a001                	j	28c0 <vTaskPlaceOnEventList+0x2a>
    28c2:	200007b7          	lui	a5,0x20000
    28c6:	842e                	mv	s0,a1
    28c8:	0cc7a583          	lw	a1,204(a5) # 200000cc <pxCurrentTCB>
    28cc:	05e1                	addi	a1,a1,24
    28ce:	bcaff0ef          	jal	ra,1c98 <vListInsert>
    28d2:	4585                	li	a1,1
    28d4:	8522                	mv	a0,s0
    28d6:	813ff0ef          	jal	ra,20e8 <prvAddCurrentTaskToDelayedList>
    28da:	c61fd06f          	j	53a <__riscv_restore_0>

000028de <vTaskPlaceOnEventListRestricted>:
    28de:	c39fd2ef          	jal	t0,516 <__riscv_save_0>
    28e2:	872a                	mv	a4,a0
    28e4:	e505                	bnez	a0,290c <vTaskPlaceOnEventListRestricted+0x2e>
    28e6:	67a1                	lui	a5,0x8
    28e8:	80078793          	addi	a5,a5,-2048 # 7800 <_data_lma+0x328c>
    28ec:	30079073          	csrw	mstatus,a5
    28f0:	00004637          	lui	a2,0x4
    28f4:	6585                	lui	a1,0x1
    28f6:	00004537          	lui	a0,0x4
    28fa:	47060613          	addi	a2,a2,1136 # 4470 <_read+0x164>
    28fe:	c5258593          	addi	a1,a1,-942 # c52 <SystemInit+0x6c>
    2902:	41050513          	addi	a0,a0,1040 # 4410 <_read+0x104>
    2906:	746000ef          	jal	ra,304c <iprintf>
    290a:	a001                	j	290a <vTaskPlaceOnEventListRestricted+0x2c>
    290c:	200007b7          	lui	a5,0x20000
    2910:	0cc78793          	addi	a5,a5,204 # 200000cc <pxCurrentTCB>
    2914:	4354                	lw	a3,4(a4)
    2916:	852e                	mv	a0,a1
    2918:	438c                	lw	a1,0(a5)
    291a:	0086a803          	lw	a6,8(a3)
    291e:	cdd4                	sw	a3,28(a1)
    2920:	438c                	lw	a1,0(a5)
    2922:	0305a023          	sw	a6,32(a1)
    2926:	0007a803          	lw	a6,0(a5)
    292a:	468c                	lw	a1,8(a3)
    292c:	0861                	addi	a6,a6,24
    292e:	0105a223          	sw	a6,4(a1)
    2932:	0007a803          	lw	a6,0(a5)
    2936:	439c                	lw	a5,0(a5)
    2938:	0861                	addi	a6,a6,24
    293a:	0106a423          	sw	a6,8(a3)
    293e:	d798                	sw	a4,40(a5)
    2940:	431c                	lw	a5,0(a4)
    2942:	0785                	addi	a5,a5,1
    2944:	c31c                	sw	a5,0(a4)
    2946:	c211                	beqz	a2,294a <vTaskPlaceOnEventListRestricted+0x6c>
    2948:	557d                	li	a0,-1
    294a:	85b2                	mv	a1,a2
    294c:	f9cff0ef          	jal	ra,20e8 <prvAddCurrentTaskToDelayedList>
    2950:	bebfd06f          	j	53a <__riscv_restore_0>

00002954 <xTaskRemoveFromEventList>:
    2954:	455c                	lw	a5,12(a0)
    2956:	47dc                	lw	a5,12(a5)
    2958:	e78d                	bnez	a5,2982 <xTaskRemoveFromEventList+0x2e>
    295a:	bbdfd2ef          	jal	t0,516 <__riscv_save_0>
    295e:	67a1                	lui	a5,0x8
    2960:	80078793          	addi	a5,a5,-2048 # 7800 <_data_lma+0x328c>
    2964:	30079073          	csrw	mstatus,a5
    2968:	00004637          	lui	a2,0x4
    296c:	6585                	lui	a1,0x1
    296e:	00004537          	lui	a0,0x4
    2972:	47060613          	addi	a2,a2,1136 # 4470 <_read+0x164>
    2976:	c8258593          	addi	a1,a1,-894 # c82 <SystemInit+0x9c>
    297a:	41050513          	addi	a0,a0,1040 # 4410 <_read+0x104>
    297e:	25f9                	jal	304c <iprintf>
    2980:	a001                	j	2980 <xTaskRemoveFromEventList+0x2c>
    2982:	4fd0                	lw	a2,28(a5)
    2984:	5394                	lw	a3,32(a5)
    2986:	5798                	lw	a4,40(a5)
    2988:	01878593          	addi	a1,a5,24
    298c:	c614                	sw	a3,8(a2)
    298e:	c2d0                	sw	a2,4(a3)
    2990:	4350                	lw	a2,4(a4)
    2992:	00b61363          	bne	a2,a1,2998 <xTaskRemoveFromEventList+0x44>
    2996:	c354                	sw	a3,4(a4)
    2998:	4314                	lw	a3,0(a4)
    299a:	0207a423          	sw	zero,40(a5)
    299e:	16fd                	addi	a3,a3,-1
    29a0:	c314                	sw	a3,0(a4)
    29a2:	20000737          	lui	a4,0x20000
    29a6:	0e072703          	lw	a4,224(a4) # 200000e0 <uxSchedulerSuspended>
    29aa:	57d4                	lw	a3,44(a5)
    29ac:	ef25                	bnez	a4,2a24 <xTaskRemoveFromEventList+0xd0>
    29ae:	478c                	lw	a1,8(a5)
    29b0:	47d0                	lw	a2,12(a5)
    29b2:	4bd8                	lw	a4,20(a5)
    29b4:	c590                	sw	a2,8(a1)
    29b6:	47d0                	lw	a2,12(a5)
    29b8:	4348                	lw	a0,4(a4)
    29ba:	c24c                	sw	a1,4(a2)
    29bc:	00478593          	addi	a1,a5,4
    29c0:	00b51363          	bne	a0,a1,29c6 <xTaskRemoveFromEventList+0x72>
    29c4:	c350                	sw	a2,4(a4)
    29c6:	4310                	lw	a2,0(a4)
    29c8:	0007aa23          	sw	zero,20(a5)
    29cc:	167d                	addi	a2,a2,-1
    29ce:	c310                	sw	a2,0(a4)
    29d0:	20000737          	lui	a4,0x20000
    29d4:	0e870713          	addi	a4,a4,232 # 200000e8 <uxTopReadyPriority>
    29d8:	4310                	lw	a2,0(a4)
    29da:	00d67363          	bgeu	a2,a3,29e0 <xTaskRemoveFromEventList+0x8c>
    29de:	c314                	sw	a3,0(a4)
    29e0:	4751                	li	a4,20
    29e2:	02e68633          	mul	a2,a3,a4
    29e6:	20003737          	lui	a4,0x20003
    29ea:	67470713          	addi	a4,a4,1652 # 20003674 <pxReadyTasksLists>
    29ee:	9732                	add	a4,a4,a2
    29f0:	4350                	lw	a2,4(a4)
    29f2:	4608                	lw	a0,8(a2)
    29f4:	c790                	sw	a2,8(a5)
    29f6:	c7c8                	sw	a0,12(a5)
    29f8:	4608                	lw	a0,8(a2)
    29fa:	c14c                	sw	a1,4(a0)
    29fc:	c60c                	sw	a1,8(a2)
    29fe:	cbd8                	sw	a4,20(a5)
    2a00:	431c                	lw	a5,0(a4)
    2a02:	4501                	li	a0,0
    2a04:	0785                	addi	a5,a5,1
    2a06:	c31c                	sw	a5,0(a4)
    2a08:	200007b7          	lui	a5,0x20000
    2a0c:	0cc7a783          	lw	a5,204(a5) # 200000cc <pxCurrentTCB>
    2a10:	57dc                	lw	a5,44(a5)
    2a12:	00d7f863          	bgeu	a5,a3,2a22 <xTaskRemoveFromEventList+0xce>
    2a16:	200007b7          	lui	a5,0x20000
    2a1a:	4705                	li	a4,1
    2a1c:	10e7a223          	sw	a4,260(a5) # 20000104 <xYieldPending>
    2a20:	4505                	li	a0,1
    2a22:	8082                	ret
    2a24:	20003737          	lui	a4,0x20003
    2a28:	7c870713          	addi	a4,a4,1992 # 200037c8 <xPendingReadyList>
    2a2c:	4350                	lw	a2,4(a4)
    2a2e:	4608                	lw	a0,8(a2)
    2a30:	cfd0                	sw	a2,28(a5)
    2a32:	d388                	sw	a0,32(a5)
    2a34:	4608                	lw	a0,8(a2)
    2a36:	c14c                	sw	a1,4(a0)
    2a38:	c60c                	sw	a1,8(a2)
    2a3a:	d798                	sw	a4,40(a5)
    2a3c:	b7d1                	j	2a00 <xTaskRemoveFromEventList+0xac>

00002a3e <vTaskInternalSetTimeOutState>:
    2a3e:	200007b7          	lui	a5,0x20000
    2a42:	0f47a783          	lw	a5,244(a5) # 200000f4 <xNumOfOverflows>
    2a46:	c11c                	sw	a5,0(a0)
    2a48:	200007b7          	lui	a5,0x20000
    2a4c:	1007a783          	lw	a5,256(a5) # 20000100 <xTickCount>
    2a50:	c15c                	sw	a5,4(a0)
    2a52:	8082                	ret

00002a54 <xTaskCheckForTimeOut>:
    2a54:	ac3fd2ef          	jal	t0,516 <__riscv_save_0>
    2a58:	1141                	addi	sp,sp,-16
    2a5a:	e11d                	bnez	a0,2a80 <xTaskCheckForTimeOut+0x2c>
    2a5c:	67a1                	lui	a5,0x8
    2a5e:	80078793          	addi	a5,a5,-2048 # 7800 <_data_lma+0x328c>
    2a62:	30079073          	csrw	mstatus,a5
    2a66:	00004637          	lui	a2,0x4
    2a6a:	6585                	lui	a1,0x1
    2a6c:	00004537          	lui	a0,0x4
    2a70:	47060613          	addi	a2,a2,1136 # 4470 <_read+0x164>
    2a74:	cfd58593          	addi	a1,a1,-771 # cfd <SystemCoreClockUpdate+0x1f>
    2a78:	41050513          	addi	a0,a0,1040 # 4410 <_read+0x104>
    2a7c:	2bc1                	jal	304c <iprintf>
    2a7e:	a001                	j	2a7e <xTaskCheckForTimeOut+0x2a>
    2a80:	e19d                	bnez	a1,2aa6 <xTaskCheckForTimeOut+0x52>
    2a82:	67a1                	lui	a5,0x8
    2a84:	80078793          	addi	a5,a5,-2048 # 7800 <_data_lma+0x328c>
    2a88:	30079073          	csrw	mstatus,a5
    2a8c:	00004637          	lui	a2,0x4
    2a90:	6585                	lui	a1,0x1
    2a92:	00004537          	lui	a0,0x4
    2a96:	47060613          	addi	a2,a2,1136 # 4470 <_read+0x164>
    2a9a:	cfe58593          	addi	a1,a1,-770 # cfe <SystemCoreClockUpdate+0x20>
    2a9e:	41050513          	addi	a0,a0,1040 # 4410 <_read+0x104>
    2aa2:	236d                	jal	304c <iprintf>
    2aa4:	a001                	j	2aa4 <xTaskCheckForTimeOut+0x50>
    2aa6:	c62e                	sw	a1,12(sp)
    2aa8:	c42a                	sw	a0,8(sp)
    2aaa:	97cff0ef          	jal	ra,1c26 <vPortEnterCritical>
    2aae:	20000737          	lui	a4,0x20000
    2ab2:	200007b7          	lui	a5,0x20000
    2ab6:	0cc70713          	addi	a4,a4,204 # 200000cc <pxCurrentTCB>
    2aba:	1007a683          	lw	a3,256(a5) # 20000100 <xTickCount>
    2abe:	431c                	lw	a5,0(a4)
    2ac0:	4522                	lw	a0,8(sp)
    2ac2:	45b2                	lw	a1,12(sp)
    2ac4:	0517c783          	lbu	a5,81(a5)
    2ac8:	cb99                	beqz	a5,2ade <xTaskCheckForTimeOut+0x8a>
    2aca:	431c                	lw	a5,0(a4)
    2acc:	040788a3          	sb	zero,81(a5)
    2ad0:	4405                	li	s0,1
    2ad2:	96aff0ef          	jal	ra,1c3c <vPortExitCritical>
    2ad6:	8522                	mv	a0,s0
    2ad8:	0141                	addi	sp,sp,16
    2ada:	a61fd06f          	j	53a <__riscv_restore_0>
    2ade:	419c                	lw	a5,0(a1)
    2ae0:	577d                	li	a4,-1
    2ae2:	4401                	li	s0,0
    2ae4:	fee787e3          	beq	a5,a4,2ad2 <xTaskCheckForTimeOut+0x7e>
    2ae8:	20000637          	lui	a2,0x20000
    2aec:	0f462603          	lw	a2,244(a2) # 200000f4 <xNumOfOverflows>
    2af0:	00052803          	lw	a6,0(a0)
    2af4:	4158                	lw	a4,4(a0)
    2af6:	00c80763          	beq	a6,a2,2b04 <xTaskCheckForTimeOut+0xb0>
    2afa:	00e6e563          	bltu	a3,a4,2b04 <xTaskCheckForTimeOut+0xb0>
    2afe:	0005a023          	sw	zero,0(a1)
    2b02:	b7f9                	j	2ad0 <xTaskCheckForTimeOut+0x7c>
    2b04:	40e68633          	sub	a2,a3,a4
    2b08:	fef67be3          	bgeu	a2,a5,2afe <xTaskCheckForTimeOut+0xaa>
    2b0c:	8f95                	sub	a5,a5,a3
    2b0e:	97ba                	add	a5,a5,a4
    2b10:	c19c                	sw	a5,0(a1)
    2b12:	3735                	jal	2a3e <vTaskInternalSetTimeOutState>
    2b14:	4401                	li	s0,0
    2b16:	bf75                	j	2ad2 <xTaskCheckForTimeOut+0x7e>

00002b18 <vTaskMissedYield>:
    2b18:	200007b7          	lui	a5,0x20000
    2b1c:	4705                	li	a4,1
    2b1e:	10e7a223          	sw	a4,260(a5) # 20000104 <xYieldPending>
    2b22:	8082                	ret

00002b24 <xTaskGetSchedulerState>:
    2b24:	200007b7          	lui	a5,0x20000
    2b28:	0fc7a783          	lw	a5,252(a5) # 200000fc <xSchedulerRunning>
    2b2c:	4505                	li	a0,1
    2b2e:	cb81                	beqz	a5,2b3e <xTaskGetSchedulerState+0x1a>
    2b30:	200007b7          	lui	a5,0x20000
    2b34:	0e07a503          	lw	a0,224(a5) # 200000e0 <uxSchedulerSuspended>
    2b38:	00153513          	seqz	a0,a0
    2b3c:	0506                	slli	a0,a0,0x1
    2b3e:	8082                	ret

00002b40 <prvCheckForValidListAndQueue>:
    2b40:	9d7fd2ef          	jal	t0,516 <__riscv_save_0>
    2b44:	20000437          	lui	s0,0x20000
    2b48:	8deff0ef          	jal	ra,1c26 <vPortEnterCritical>
    2b4c:	11440413          	addi	s0,s0,276 # 20000114 <xTimerQueue>
    2b50:	401c                	lw	a5,0(s0)
    2b52:	e7b1                	bnez	a5,2b9e <prvCheckForValidListAndQueue+0x5e>
    2b54:	20004537          	lui	a0,0x20004
    2b58:	80450913          	addi	s2,a0,-2044 # 20003804 <xActiveTimerList1>
    2b5c:	80450513          	addi	a0,a0,-2044
    2b60:	91eff0ef          	jal	ra,1c7e <vListInitialise>
    2b64:	20004537          	lui	a0,0x20004
    2b68:	81850493          	addi	s1,a0,-2024 # 20003818 <xActiveTimerList2>
    2b6c:	81850513          	addi	a0,a0,-2024
    2b70:	90eff0ef          	jal	ra,1c7e <vListInitialise>
    2b74:	200007b7          	lui	a5,0x20000
    2b78:	1127a423          	sw	s2,264(a5) # 20000108 <pxCurrentTimerList>
    2b7c:	4601                	li	a2,0
    2b7e:	200007b7          	lui	a5,0x20000
    2b82:	45c1                	li	a1,16
    2b84:	4511                	li	a0,4
    2b86:	1097a623          	sw	s1,268(a5) # 2000010c <pxOverflowTimerList>
    2b8a:	ac8ff0ef          	jal	ra,1e52 <xQueueGenericCreate>
    2b8e:	c008                	sw	a0,0(s0)
    2b90:	c519                	beqz	a0,2b9e <prvCheckForValidListAndQueue+0x5e>
    2b92:	000045b7          	lui	a1,0x4
    2b96:	4b058593          	addi	a1,a1,1200 # 44b0 <_read+0x1a4>
    2b9a:	c68ff0ef          	jal	ra,2002 <vQueueAddToRegistry>
    2b9e:	89eff0ef          	jal	ra,1c3c <vPortExitCritical>
    2ba2:	999fd06f          	j	53a <__riscv_restore_0>

00002ba6 <prvInsertTimerInActiveList>:
    2ba6:	971fd2ef          	jal	t0,516 <__riscv_save_0>
    2baa:	c14c                	sw	a1,4(a0)
    2bac:	c908                	sw	a0,16(a0)
    2bae:	87aa                	mv	a5,a0
    2bb0:	02b66263          	bltu	a2,a1,2bd4 <prvInsertTimerInActiveList+0x2e>
    2bb4:	4d18                	lw	a4,24(a0)
    2bb6:	8e15                	sub	a2,a2,a3
    2bb8:	4505                	li	a0,1
    2bba:	00e67b63          	bgeu	a2,a4,2bd0 <prvInsertTimerInActiveList+0x2a>
    2bbe:	00478593          	addi	a1,a5,4
    2bc2:	200007b7          	lui	a5,0x20000
    2bc6:	10c7a503          	lw	a0,268(a5) # 2000010c <pxOverflowTimerList>
    2bca:	8ceff0ef          	jal	ra,1c98 <vListInsert>
    2bce:	4501                	li	a0,0
    2bd0:	96bfd06f          	j	53a <__riscv_restore_0>
    2bd4:	00d67563          	bgeu	a2,a3,2bde <prvInsertTimerInActiveList+0x38>
    2bd8:	4505                	li	a0,1
    2bda:	fed5fbe3          	bgeu	a1,a3,2bd0 <prvInsertTimerInActiveList+0x2a>
    2bde:	00478593          	addi	a1,a5,4
    2be2:	200007b7          	lui	a5,0x20000
    2be6:	1087a503          	lw	a0,264(a5) # 20000108 <pxCurrentTimerList>
    2bea:	b7c5                	j	2bca <prvInsertTimerInActiveList+0x24>

00002bec <prvReloadTimer>:
    2bec:	92bfd2ef          	jal	t0,516 <__riscv_save_0>
    2bf0:	842a                	mv	s0,a0
    2bf2:	84ae                	mv	s1,a1
    2bf4:	8932                	mv	s2,a2
    2bf6:	4c0c                	lw	a1,24(s0)
    2bf8:	86a6                	mv	a3,s1
    2bfa:	864a                	mv	a2,s2
    2bfc:	95a6                	add	a1,a1,s1
    2bfe:	8522                	mv	a0,s0
    2c00:	375d                	jal	2ba6 <prvInsertTimerInActiveList>
    2c02:	e119                	bnez	a0,2c08 <prvReloadTimer+0x1c>
    2c04:	937fd06f          	j	53a <__riscv_restore_0>
    2c08:	4c1c                	lw	a5,24(s0)
    2c0a:	8522                	mv	a0,s0
    2c0c:	94be                	add	s1,s1,a5
    2c0e:	501c                	lw	a5,32(s0)
    2c10:	9782                	jalr	a5
    2c12:	b7d5                	j	2bf6 <prvReloadTimer+0xa>

00002c14 <prvProcessExpiredTimer>:
    2c14:	903fd2ef          	jal	t0,516 <__riscv_save_0>
    2c18:	200007b7          	lui	a5,0x20000
    2c1c:	1087a783          	lw	a5,264(a5) # 20000108 <pxCurrentTimerList>
    2c20:	1141                	addi	sp,sp,-16
    2c22:	84aa                	mv	s1,a0
    2c24:	47dc                	lw	a5,12(a5)
    2c26:	c62e                	sw	a1,12(sp)
    2c28:	47c0                	lw	s0,12(a5)
    2c2a:	00440513          	addi	a0,s0,4
    2c2e:	898ff0ef          	jal	ra,1cc6 <uxListRemove>
    2c32:	02444783          	lbu	a5,36(s0)
    2c36:	4632                	lw	a2,12(sp)
    2c38:	0047f713          	andi	a4,a5,4
    2c3c:	cb11                	beqz	a4,2c50 <prvProcessExpiredTimer+0x3c>
    2c3e:	85a6                	mv	a1,s1
    2c40:	8522                	mv	a0,s0
    2c42:	376d                	jal	2bec <prvReloadTimer>
    2c44:	501c                	lw	a5,32(s0)
    2c46:	8522                	mv	a0,s0
    2c48:	9782                	jalr	a5
    2c4a:	0141                	addi	sp,sp,16
    2c4c:	8effd06f          	j	53a <__riscv_restore_0>
    2c50:	9bf9                	andi	a5,a5,-2
    2c52:	02f40223          	sb	a5,36(s0)
    2c56:	b7fd                	j	2c44 <prvProcessExpiredTimer+0x30>

00002c58 <prvSwitchTimerLists>:
    2c58:	8bffd2ef          	jal	t0,516 <__riscv_save_0>
    2c5c:	20000437          	lui	s0,0x20000
    2c60:	10840693          	addi	a3,s0,264 # 20000108 <pxCurrentTimerList>
    2c64:	4298                	lw	a4,0(a3)
    2c66:	431c                	lw	a5,0(a4)
    2c68:	eb91                	bnez	a5,2c7c <prvSwitchTimerLists+0x24>
    2c6a:	200007b7          	lui	a5,0x20000
    2c6e:	10c78793          	addi	a5,a5,268 # 2000010c <pxOverflowTimerList>
    2c72:	4390                	lw	a2,0(a5)
    2c74:	c398                	sw	a4,0(a5)
    2c76:	c290                	sw	a2,0(a3)
    2c78:	8c3fd06f          	j	53a <__riscv_restore_0>
    2c7c:	475c                	lw	a5,12(a4)
    2c7e:	55fd                	li	a1,-1
    2c80:	4388                	lw	a0,0(a5)
    2c82:	3f49                	jal	2c14 <prvProcessExpiredTimer>
    2c84:	bff1                	j	2c60 <prvSwitchTimerLists+0x8>

00002c86 <prvTimerTask>:
    2c86:	869fd2ef          	jal	t0,4ee <__riscv_save_10>
    2c8a:	6911                	lui	s2,0x4
    2c8c:	1141                	addi	sp,sp,-16
    2c8e:	20000ab7          	lui	s5,0x20000
    2c92:	200009b7          	lui	s3,0x20000
    2c96:	20000b37          	lui	s6,0x20000
    2c9a:	20000bb7          	lui	s7,0x20000
    2c9e:	48c90913          	addi	s2,s2,1164 # 448c <_read+0x180>
    2ca2:	108aa783          	lw	a5,264(s5) # 20000108 <pxCurrentTimerList>
    2ca6:	4398                	lw	a4,0(a5)
    2ca8:	cb29                	beqz	a4,2cfa <prvTimerTask+0x74>
    2caa:	47dc                	lw	a5,12(a5)
    2cac:	4c81                	li	s9,0
    2cae:	0007ac03          	lw	s8,0(a5)
    2cb2:	fbeff0ef          	jal	ra,2470 <vTaskSuspendAll>
    2cb6:	fcaff0ef          	jal	ra,2480 <xTaskGetTickCount>
    2cba:	1109a783          	lw	a5,272(s3) # 20000110 <xLastTime.6323>
    2cbe:	842a                	mv	s0,a0
    2cc0:	11098493          	addi	s1,s3,272
    2cc4:	114b0a13          	addi	s4,s6,276 # 20000114 <xTimerQueue>
    2cc8:	02f56c63          	bltu	a0,a5,2d00 <prvTimerTask+0x7a>
    2ccc:	c088                	sw	a0,0(s1)
    2cce:	020c8f63          	beqz	s9,2d0c <prvTimerTask+0x86>
    2cd2:	10cba783          	lw	a5,268(s7) # 2000010c <pxOverflowTimerList>
    2cd6:	4390                	lw	a2,0(a5)
    2cd8:	00163613          	seqz	a2,a2
    2cdc:	000a2503          	lw	a0,0(s4)
    2ce0:	408c05b3          	sub	a1,s8,s0
    2ce4:	b8aff0ef          	jal	ra,206e <vQueueWaitForMessageRestricted>
    2ce8:	94dff0ef          	jal	ra,2634 <xTaskResumeAll>
    2cec:	ed11                	bnez	a0,2d08 <prvTimerTask+0x82>
    2cee:	e000e7b7          	lui	a5,0xe000e
    2cf2:	6711                	lui	a4,0x4
    2cf4:	20e7a023          	sw	a4,512(a5) # e000e200 <__freertos_irq_stack_top+0xbfffe200>
    2cf8:	a801                	j	2d08 <prvTimerTask+0x82>
    2cfa:	4c85                	li	s9,1
    2cfc:	4c01                	li	s8,0
    2cfe:	bf55                	j	2cb2 <prvTimerTask+0x2c>
    2d00:	3fa1                	jal	2c58 <prvSwitchTimerLists>
    2d02:	c080                	sw	s0,0(s1)
    2d04:	931ff0ef          	jal	ra,2634 <xTaskResumeAll>
    2d08:	4c21                	li	s8,8
    2d0a:	a005                	j	2d2a <prvTimerTask+0xa4>
    2d0c:	4601                	li	a2,0
    2d0e:	fd8567e3          	bltu	a0,s8,2cdc <prvTimerTask+0x56>
    2d12:	923ff0ef          	jal	ra,2634 <xTaskResumeAll>
    2d16:	85a2                	mv	a1,s0
    2d18:	8562                	mv	a0,s8
    2d1a:	3ded                	jal	2c14 <prvProcessExpiredTimer>
    2d1c:	b7f5                	j	2d08 <prvTimerTask+0x82>
    2d1e:	4792                	lw	a5,4(sp)
    2d20:	45b2                	lw	a1,12(sp)
    2d22:	9782                	jalr	a5
    2d24:	4782                	lw	a5,0(sp)
    2d26:	0007dd63          	bgez	a5,2d40 <prvTimerTask+0xba>
    2d2a:	000a2503          	lw	a0,0(s4)
    2d2e:	4601                	li	a2,0
    2d30:	858a                	mv	a1,sp
    2d32:	98aff0ef          	jal	ra,1ebc <xQueueReceive>
    2d36:	d535                	beqz	a0,2ca2 <prvTimerTask+0x1c>
    2d38:	4782                	lw	a5,0(sp)
    2d3a:	4522                	lw	a0,8(sp)
    2d3c:	fe07c1e3          	bltz	a5,2d1e <prvTimerTask+0x98>
    2d40:	4422                	lw	s0,8(sp)
    2d42:	485c                	lw	a5,20(s0)
    2d44:	e395                	bnez	a5,2d68 <prvTimerTask+0xe2>
    2d46:	f3aff0ef          	jal	ra,2480 <xTaskGetTickCount>
    2d4a:	409c                	lw	a5,0(s1)
    2d4c:	8caa                	mv	s9,a0
    2d4e:	00f57363          	bgeu	a0,a5,2d54 <prvTimerTask+0xce>
    2d52:	3719                	jal	2c58 <prvSwitchTimerLists>
    2d54:	4782                	lw	a5,0(sp)
    2d56:	0194a023          	sw	s9,0(s1)
    2d5a:	17fd                	addi	a5,a5,-1
    2d5c:	fcfc67e3          	bltu	s8,a5,2d2a <prvTimerTask+0xa4>
    2d60:	078a                	slli	a5,a5,0x2
    2d62:	97ca                	add	a5,a5,s2
    2d64:	439c                	lw	a5,0(a5)
    2d66:	8782                	jr	a5
    2d68:	00440513          	addi	a0,s0,4
    2d6c:	f5bfe0ef          	jal	ra,1cc6 <uxListRemove>
    2d70:	bfd9                	j	2d46 <prvTimerTask+0xc0>
    2d72:	02444783          	lbu	a5,36(s0)
    2d76:	4c0c                	lw	a1,24(s0)
    2d78:	4692                	lw	a3,4(sp)
    2d7a:	0017e793          	ori	a5,a5,1
    2d7e:	02f40223          	sb	a5,36(s0)
    2d82:	8666                	mv	a2,s9
    2d84:	95b6                	add	a1,a1,a3
    2d86:	8522                	mv	a0,s0
    2d88:	3d39                	jal	2ba6 <prvInsertTimerInActiveList>
    2d8a:	d145                	beqz	a0,2d2a <prvTimerTask+0xa4>
    2d8c:	02444783          	lbu	a5,36(s0)
    2d90:	0047f713          	andi	a4,a5,4
    2d94:	cb19                	beqz	a4,2daa <prvTimerTask+0x124>
    2d96:	4c1c                	lw	a5,24(s0)
    2d98:	4592                	lw	a1,4(sp)
    2d9a:	8666                	mv	a2,s9
    2d9c:	8522                	mv	a0,s0
    2d9e:	95be                	add	a1,a1,a5
    2da0:	35b1                	jal	2bec <prvReloadTimer>
    2da2:	501c                	lw	a5,32(s0)
    2da4:	8522                	mv	a0,s0
    2da6:	9782                	jalr	a5
    2da8:	b749                	j	2d2a <prvTimerTask+0xa4>
    2daa:	9bf9                	andi	a5,a5,-2
    2dac:	02f40223          	sb	a5,36(s0)
    2db0:	bfcd                	j	2da2 <prvTimerTask+0x11c>
    2db2:	02444783          	lbu	a5,36(s0)
    2db6:	9bf9                	andi	a5,a5,-2
    2db8:	02f40223          	sb	a5,36(s0)
    2dbc:	b7bd                	j	2d2a <prvTimerTask+0xa4>
    2dbe:	02444783          	lbu	a5,36(s0)
    2dc2:	4592                	lw	a1,4(sp)
    2dc4:	0017e793          	ori	a5,a5,1
    2dc8:	02f40223          	sb	a5,36(s0)
    2dcc:	cc0c                	sw	a1,24(s0)
    2dce:	e195                	bnez	a1,2df2 <prvTimerTask+0x16c>
    2dd0:	67a1                	lui	a5,0x8
    2dd2:	80078793          	addi	a5,a5,-2048 # 7800 <_data_lma+0x328c>
    2dd6:	30079073          	csrw	mstatus,a5
    2dda:	00004637          	lui	a2,0x4
    2dde:	00004537          	lui	a0,0x4
    2de2:	4b860613          	addi	a2,a2,1208 # 44b8 <_read+0x1ac>
    2de6:	35900593          	li	a1,857
    2dea:	41050513          	addi	a0,a0,1040 # 4410 <_read+0x104>
    2dee:	2cb9                	jal	304c <iprintf>
    2df0:	a001                	j	2df0 <prvTimerTask+0x16a>
    2df2:	86e6                	mv	a3,s9
    2df4:	8666                	mv	a2,s9
    2df6:	95e6                	add	a1,a1,s9
    2df8:	8522                	mv	a0,s0
    2dfa:	3375                	jal	2ba6 <prvInsertTimerInActiveList>
    2dfc:	b73d                	j	2d2a <prvTimerTask+0xa4>
    2dfe:	02444783          	lbu	a5,36(s0)
    2e02:	0027f713          	andi	a4,a5,2
    2e06:	fb45                	bnez	a4,2db6 <prvTimerTask+0x130>
    2e08:	8522                	mv	a0,s0
    2e0a:	c73fe0ef          	jal	ra,1a7c <vPortFree>
    2e0e:	bf31                	j	2d2a <prvTimerTask+0xa4>

00002e10 <xTimerCreateTimerTask>:
    2e10:	f06fd2ef          	jal	t0,516 <__riscv_save_0>
    2e14:	3335                	jal	2b40 <prvCheckForValidListAndQueue>
    2e16:	200007b7          	lui	a5,0x20000
    2e1a:	1147a783          	lw	a5,276(a5) # 20000114 <xTimerQueue>
    2e1e:	e395                	bnez	a5,2e42 <xTimerCreateTimerTask+0x32>
    2e20:	67a1                	lui	a5,0x8
    2e22:	80078793          	addi	a5,a5,-2048 # 7800 <_data_lma+0x328c>
    2e26:	30079073          	csrw	mstatus,a5
    2e2a:	00004637          	lui	a2,0x4
    2e2e:	00004537          	lui	a0,0x4
    2e32:	4b860613          	addi	a2,a2,1208 # 44b8 <_read+0x1ac>
    2e36:	11900593          	li	a1,281
    2e3a:	41050513          	addi	a0,a0,1040 # 4410 <_read+0x104>
    2e3e:	2439                	jal	304c <iprintf>
    2e40:	a001                	j	2e40 <xTimerCreateTimerTask+0x30>
    2e42:	200007b7          	lui	a5,0x20000
    2e46:	000045b7          	lui	a1,0x4
    2e4a:	00003537          	lui	a0,0x3
    2e4e:	11878793          	addi	a5,a5,280 # 20000118 <xTimerTaskHandle>
    2e52:	4739                	li	a4,14
    2e54:	4681                	li	a3,0
    2e56:	10000613          	li	a2,256
    2e5a:	4d058593          	addi	a1,a1,1232 # 44d0 <_read+0x1c4>
    2e5e:	c8650513          	addi	a0,a0,-890 # 2c86 <prvTimerTask>
    2e62:	b7aff0ef          	jal	ra,21dc <xTaskCreate>
    2e66:	dd4d                	beqz	a0,2e20 <xTimerCreateTimerTask+0x10>
    2e68:	ed2fd06f          	j	53a <__riscv_restore_0>

00002e6c <Delay_Init>:
    2e6c:	200007b7          	lui	a5,0x20000
    2e70:	0807a783          	lw	a5,128(a5) # 20000080 <SystemCoreClock>
    2e74:	007a1737          	lui	a4,0x7a1
    2e78:	20070713          	addi	a4,a4,512 # 7a1200 <_data_lma+0x79cc8c>
    2e7c:	02e7d7b3          	divu	a5,a5,a4
    2e80:	20000737          	lui	a4,0x20000
    2e84:	0ff7f793          	andi	a5,a5,255
    2e88:	10f70f23          	sb	a5,286(a4) # 2000011e <p_us>
    2e8c:	3e800713          	li	a4,1000
    2e90:	02e787b3          	mul	a5,a5,a4
    2e94:	20000737          	lui	a4,0x20000
    2e98:	10f71e23          	sh	a5,284(a4) # 2000011c <p_ms>
    2e9c:	8082                	ret

00002e9e <Delay_Ms>:
    2e9e:	e000f7b7          	lui	a5,0xe000f
    2ea2:	43d8                	lw	a4,4(a5)
    2ea4:	4681                	li	a3,0
    2ea6:	9b79                	andi	a4,a4,-2
    2ea8:	c3d8                	sw	a4,4(a5)
    2eaa:	20000737          	lui	a4,0x20000
    2eae:	11c75703          	lhu	a4,284(a4) # 2000011c <p_ms>
    2eb2:	02a70633          	mul	a2,a4,a0
    2eb6:	cb90                	sw	a2,16(a5)
    2eb8:	cbd4                	sw	a3,20(a5)
    2eba:	4398                	lw	a4,0(a5)
    2ebc:	01076713          	ori	a4,a4,16
    2ec0:	c398                	sw	a4,0(a5)
    2ec2:	4398                	lw	a4,0(a5)
    2ec4:	02176713          	ori	a4,a4,33
    2ec8:	c398                	sw	a4,0(a5)
    2eca:	43d8                	lw	a4,4(a5)
    2ecc:	8b05                	andi	a4,a4,1
    2ece:	df75                	beqz	a4,2eca <Delay_Ms+0x2c>
    2ed0:	4398                	lw	a4,0(a5)
    2ed2:	9b79                	andi	a4,a4,-2
    2ed4:	c398                	sw	a4,0(a5)
    2ed6:	8082                	ret

00002ed8 <USART_Printf_Init>:
    2ed8:	e3efd2ef          	jal	t0,516 <__riscv_save_0>
    2edc:	842a                	mv	s0,a0
    2ede:	6511                	lui	a0,0x4
    2ee0:	1101                	addi	sp,sp,-32
    2ee2:	4585                	li	a1,1
    2ee4:	0511                	addi	a0,a0,4
    2ee6:	843fe0ef          	jal	ra,1728 <RCC_APB2PeriphClockCmd>
    2eea:	20000793          	li	a5,512
    2eee:	827c                	sh	a5,4(sp)
    2ef0:	40011537          	lui	a0,0x40011
    2ef4:	478d                	li	a5,3
    2ef6:	c43e                	sw	a5,8(sp)
    2ef8:	004c                	addi	a1,sp,4
    2efa:	47e1                	li	a5,24
    2efc:	80050513          	addi	a0,a0,-2048 # 40010800 <__freertos_irq_stack_top+0x20000800>
    2f00:	c63e                	sw	a5,12(sp)
    2f02:	ca0fe0ef          	jal	ra,13a2 <GPIO_Init>
    2f06:	c822                	sw	s0,16(sp)
    2f08:	40014437          	lui	s0,0x40014
    2f0c:	000807b7          	lui	a5,0x80
    2f10:	080c                	addi	a1,sp,16
    2f12:	80040513          	addi	a0,s0,-2048 # 40013800 <__freertos_irq_stack_top+0x20003800>
    2f16:	cc3e                	sw	a5,24(sp)
    2f18:	ca02                	sw	zero,20(sp)
    2f1a:	00011e23          	sh	zero,28(sp)
    2f1e:	847fe0ef          	jal	ra,1764 <USART_Init>
    2f22:	4585                	li	a1,1
    2f24:	80040513          	addi	a0,s0,-2048
    2f28:	8cbfe0ef          	jal	ra,17f2 <USART_Cmd>
    2f2c:	6105                	addi	sp,sp,32
    2f2e:	e0cfd06f          	j	53a <__riscv_restore_0>

00002f32 <_write>:
    2f32:	dcafd2ef          	jal	t0,4fc <__riscv_save_4>
    2f36:	400144b7          	lui	s1,0x40014
    2f3a:	89ae                	mv	s3,a1
    2f3c:	8932                	mv	s2,a2
    2f3e:	4401                	li	s0,0
    2f40:	80048493          	addi	s1,s1,-2048 # 40013800 <__freertos_irq_stack_top+0x20003800>
    2f44:	01244563          	blt	s0,s2,2f4e <_write+0x1c>
    2f48:	854a                	mv	a0,s2
    2f4a:	de6fd06f          	j	530 <__riscv_restore_4>
    2f4e:	04000593          	li	a1,64
    2f52:	8526                	mv	a0,s1
    2f54:	90dfe0ef          	jal	ra,1860 <USART_GetFlagStatus>
    2f58:	d97d                	beqz	a0,2f4e <_write+0x1c>
    2f5a:	008987b3          	add	a5,s3,s0
    2f5e:	00078583          	lb	a1,0(a5) # 80000 <_data_lma+0x7ba8c>
    2f62:	8526                	mv	a0,s1
    2f64:	0405                	addi	s0,s0,1
    2f66:	05c2                	slli	a1,a1,0x10
    2f68:	81c1                	srli	a1,a1,0x10
    2f6a:	8e7fe0ef          	jal	ra,1850 <USART_SendData>
    2f6e:	bfd9                	j	2f44 <_write+0x12>

00002f70 <_sbrk>:
    2f70:	81018713          	addi	a4,gp,-2032 # 20000090 <curbrk.5274>
    2f74:	431c                	lw	a5,0(a4)
    2f76:	200046b7          	lui	a3,0x20004
    2f7a:	83068693          	addi	a3,a3,-2000 # 20003830 <_ebss>
    2f7e:	953e                	add	a0,a0,a5
    2f80:	00d56b63          	bltu	a0,a3,2f96 <_sbrk+0x26>
    2f84:	200106b7          	lui	a3,0x20010
    2f88:	80068693          	addi	a3,a3,-2048 # 2000f800 <_heap_end>
    2f8c:	00a6e563          	bltu	a3,a0,2f96 <_sbrk+0x26>
    2f90:	c308                	sw	a0,0(a4)
    2f92:	853e                	mv	a0,a5
    2f94:	8082                	ret
    2f96:	57fd                	li	a5,-1
    2f98:	bfed                	j	2f92 <_sbrk+0x22>

00002f9a <memcpy>:
    2f9a:	00a5c7b3          	xor	a5,a1,a0
    2f9e:	8b8d                	andi	a5,a5,3
    2fa0:	00c50733          	add	a4,a0,a2
    2fa4:	e781                	bnez	a5,2fac <memcpy+0x12>
    2fa6:	478d                	li	a5,3
    2fa8:	00c7ed63          	bltu	a5,a2,2fc2 <memcpy+0x28>
    2fac:	87aa                	mv	a5,a0
    2fae:	08e57e63          	bgeu	a0,a4,304a <memcpy+0xb0>
    2fb2:	2194                	lbu	a3,0(a1)
    2fb4:	0785                	addi	a5,a5,1
    2fb6:	0585                	addi	a1,a1,1
    2fb8:	fed78fa3          	sb	a3,-1(a5)
    2fbc:	fee7ebe3          	bltu	a5,a4,2fb2 <memcpy+0x18>
    2fc0:	8082                	ret
    2fc2:	00357693          	andi	a3,a0,3
    2fc6:	87aa                	mv	a5,a0
    2fc8:	ca89                	beqz	a3,2fda <memcpy+0x40>
    2fca:	2194                	lbu	a3,0(a1)
    2fcc:	0785                	addi	a5,a5,1
    2fce:	0585                	addi	a1,a1,1
    2fd0:	fed78fa3          	sb	a3,-1(a5)
    2fd4:	0037f693          	andi	a3,a5,3
    2fd8:	bfc5                	j	2fc8 <memcpy+0x2e>
    2fda:	ffc77693          	andi	a3,a4,-4
    2fde:	fe068613          	addi	a2,a3,-32
    2fe2:	06c7f063          	bgeu	a5,a2,3042 <memcpy+0xa8>
    2fe6:	0005a383          	lw	t2,0(a1)
    2fea:	0045a283          	lw	t0,4(a1)
    2fee:	0085af83          	lw	t6,8(a1)
    2ff2:	00c5af03          	lw	t5,12(a1)
    2ff6:	0105ae83          	lw	t4,16(a1)
    2ffa:	0145ae03          	lw	t3,20(a1)
    2ffe:	0185a303          	lw	t1,24(a1)
    3002:	01c5a883          	lw	a7,28(a1)
    3006:	02458593          	addi	a1,a1,36
    300a:	0077a023          	sw	t2,0(a5)
    300e:	ffc5a803          	lw	a6,-4(a1)
    3012:	0057a223          	sw	t0,4(a5)
    3016:	01f7a423          	sw	t6,8(a5)
    301a:	01e7a623          	sw	t5,12(a5)
    301e:	01d7a823          	sw	t4,16(a5)
    3022:	01c7aa23          	sw	t3,20(a5)
    3026:	0067ac23          	sw	t1,24(a5)
    302a:	0117ae23          	sw	a7,28(a5)
    302e:	02478793          	addi	a5,a5,36
    3032:	ff07ae23          	sw	a6,-4(a5)
    3036:	b775                	j	2fe2 <memcpy+0x48>
    3038:	4190                	lw	a2,0(a1)
    303a:	0791                	addi	a5,a5,4
    303c:	0591                	addi	a1,a1,4
    303e:	fec7ae23          	sw	a2,-4(a5)
    3042:	fed7ebe3          	bltu	a5,a3,3038 <memcpy+0x9e>
    3046:	f6e7e6e3          	bltu	a5,a4,2fb2 <memcpy+0x18>
    304a:	8082                	ret

0000304c <iprintf>:
    304c:	7139                	addi	sp,sp,-64
    304e:	da3e                	sw	a5,52(sp)
    3050:	d22e                	sw	a1,36(sp)
    3052:	d432                	sw	a2,40(sp)
    3054:	d636                	sw	a3,44(sp)
    3056:	d83a                	sw	a4,48(sp)
    3058:	dc42                	sw	a6,56(sp)
    305a:	de46                	sw	a7,60(sp)
    305c:	81418793          	addi	a5,gp,-2028 # 20000094 <_impure_ptr>
    3060:	cc22                	sw	s0,24(sp)
    3062:	4380                	lw	s0,0(a5)
    3064:	ca26                	sw	s1,20(sp)
    3066:	ce06                	sw	ra,28(sp)
    3068:	84aa                	mv	s1,a0
    306a:	c409                	beqz	s0,3074 <iprintf+0x28>
    306c:	4c1c                	lw	a5,24(s0)
    306e:	e399                	bnez	a5,3074 <iprintf+0x28>
    3070:	8522                	mv	a0,s0
    3072:	2315                	jal	3596 <__sinit>
    3074:	440c                	lw	a1,8(s0)
    3076:	1054                	addi	a3,sp,36
    3078:	8626                	mv	a2,s1
    307a:	8522                	mv	a0,s0
    307c:	c636                	sw	a3,12(sp)
    307e:	16d000ef          	jal	ra,39ea <_vfiprintf_r>
    3082:	40f2                	lw	ra,28(sp)
    3084:	4462                	lw	s0,24(sp)
    3086:	44d2                	lw	s1,20(sp)
    3088:	6121                	addi	sp,sp,64
    308a:	8082                	ret

0000308c <putchar>:
    308c:	1101                	addi	sp,sp,-32
    308e:	81418793          	addi	a5,gp,-2028 # 20000094 <_impure_ptr>
    3092:	cc22                	sw	s0,24(sp)
    3094:	4380                	lw	s0,0(a5)
    3096:	ce06                	sw	ra,28(sp)
    3098:	85aa                	mv	a1,a0
    309a:	c419                	beqz	s0,30a8 <putchar+0x1c>
    309c:	4c1c                	lw	a5,24(s0)
    309e:	e789                	bnez	a5,30a8 <putchar+0x1c>
    30a0:	c62a                	sw	a0,12(sp)
    30a2:	8522                	mv	a0,s0
    30a4:	29cd                	jal	3596 <__sinit>
    30a6:	45b2                	lw	a1,12(sp)
    30a8:	4410                	lw	a2,8(s0)
    30aa:	8522                	mv	a0,s0
    30ac:	4462                	lw	s0,24(sp)
    30ae:	40f2                	lw	ra,28(sp)
    30b0:	6105                	addi	sp,sp,32
    30b2:	76f0006f          	j	4020 <_putc_r>

000030b6 <_puts_r>:
    30b6:	1101                	addi	sp,sp,-32
    30b8:	ca26                	sw	s1,20(sp)
    30ba:	c84a                	sw	s2,16(sp)
    30bc:	ce06                	sw	ra,28(sp)
    30be:	cc22                	sw	s0,24(sp)
    30c0:	c64e                	sw	s3,12(sp)
    30c2:	c452                	sw	s4,8(sp)
    30c4:	84aa                	mv	s1,a0
    30c6:	892e                	mv	s2,a1
    30c8:	c501                	beqz	a0,30d0 <_puts_r+0x1a>
    30ca:	4d1c                	lw	a5,24(a0)
    30cc:	e391                	bnez	a5,30d0 <_puts_r+0x1a>
    30ce:	21e1                	jal	3596 <__sinit>
    30d0:	4c9c                	lw	a5,24(s1)
    30d2:	4480                	lw	s0,8(s1)
    30d4:	e399                	bnez	a5,30da <_puts_r+0x24>
    30d6:	8526                	mv	a0,s1
    30d8:	297d                	jal	3596 <__sinit>
    30da:	00001797          	auipc	a5,0x1
    30de:	41e78793          	addi	a5,a5,1054 # 44f8 <__sf_fake_stdin>
    30e2:	02f41b63          	bne	s0,a5,3118 <_puts_r+0x62>
    30e6:	40c0                	lw	s0,4(s1)
    30e8:	245e                	lhu	a5,12(s0)
    30ea:	8ba1                	andi	a5,a5,8
    30ec:	c7b1                	beqz	a5,3138 <_puts_r+0x82>
    30ee:	481c                	lw	a5,16(s0)
    30f0:	c7a1                	beqz	a5,3138 <_puts_r+0x82>
    30f2:	59fd                	li	s3,-1
    30f4:	4a29                	li	s4,10
    30f6:	441c                	lw	a5,8(s0)
    30f8:	00094583          	lbu	a1,0(s2)
    30fc:	17fd                	addi	a5,a5,-1
    30fe:	e9b1                	bnez	a1,3152 <_puts_r+0x9c>
    3100:	c41c                	sw	a5,8(s0)
    3102:	0607dd63          	bgez	a5,317c <_puts_r+0xc6>
    3106:	8622                	mv	a2,s0
    3108:	45a9                	li	a1,10
    310a:	8526                	mv	a0,s1
    310c:	2061                	jal	3194 <__swbuf_r>
    310e:	57fd                	li	a5,-1
    3110:	02f50863          	beq	a0,a5,3140 <_puts_r+0x8a>
    3114:	4529                	li	a0,10
    3116:	a035                	j	3142 <_puts_r+0x8c>
    3118:	00001797          	auipc	a5,0x1
    311c:	40078793          	addi	a5,a5,1024 # 4518 <__sf_fake_stdout>
    3120:	00f41463          	bne	s0,a5,3128 <_puts_r+0x72>
    3124:	4480                	lw	s0,8(s1)
    3126:	b7c9                	j	30e8 <_puts_r+0x32>
    3128:	00001797          	auipc	a5,0x1
    312c:	3b078793          	addi	a5,a5,944 # 44d8 <__sf_fake_stderr>
    3130:	faf41ce3          	bne	s0,a5,30e8 <_puts_r+0x32>
    3134:	44c0                	lw	s0,12(s1)
    3136:	bf4d                	j	30e8 <_puts_r+0x32>
    3138:	85a2                	mv	a1,s0
    313a:	8526                	mv	a0,s1
    313c:	2a11                	jal	3250 <__swsetup_r>
    313e:	d955                	beqz	a0,30f2 <_puts_r+0x3c>
    3140:	557d                	li	a0,-1
    3142:	40f2                	lw	ra,28(sp)
    3144:	4462                	lw	s0,24(sp)
    3146:	44d2                	lw	s1,20(sp)
    3148:	4942                	lw	s2,16(sp)
    314a:	49b2                	lw	s3,12(sp)
    314c:	4a22                	lw	s4,8(sp)
    314e:	6105                	addi	sp,sp,32
    3150:	8082                	ret
    3152:	c41c                	sw	a5,8(s0)
    3154:	0905                	addi	s2,s2,1
    3156:	0007d763          	bgez	a5,3164 <_puts_r+0xae>
    315a:	4c18                	lw	a4,24(s0)
    315c:	00e7ca63          	blt	a5,a4,3170 <_puts_r+0xba>
    3160:	01458863          	beq	a1,s4,3170 <_puts_r+0xba>
    3164:	401c                	lw	a5,0(s0)
    3166:	00178713          	addi	a4,a5,1
    316a:	c018                	sw	a4,0(s0)
    316c:	a38c                	sb	a1,0(a5)
    316e:	b761                	j	30f6 <_puts_r+0x40>
    3170:	8622                	mv	a2,s0
    3172:	8526                	mv	a0,s1
    3174:	2005                	jal	3194 <__swbuf_r>
    3176:	f93510e3          	bne	a0,s3,30f6 <_puts_r+0x40>
    317a:	b7d9                	j	3140 <_puts_r+0x8a>
    317c:	401c                	lw	a5,0(s0)
    317e:	00178713          	addi	a4,a5,1
    3182:	c018                	sw	a4,0(s0)
    3184:	4729                	li	a4,10
    3186:	a398                	sb	a4,0(a5)
    3188:	b771                	j	3114 <_puts_r+0x5e>

0000318a <puts>:
    318a:	81418793          	addi	a5,gp,-2028 # 20000094 <_impure_ptr>
    318e:	85aa                	mv	a1,a0
    3190:	4388                	lw	a0,0(a5)
    3192:	b715                	j	30b6 <_puts_r>

00003194 <__swbuf_r>:
    3194:	1101                	addi	sp,sp,-32
    3196:	cc22                	sw	s0,24(sp)
    3198:	ca26                	sw	s1,20(sp)
    319a:	c84a                	sw	s2,16(sp)
    319c:	ce06                	sw	ra,28(sp)
    319e:	c64e                	sw	s3,12(sp)
    31a0:	84aa                	mv	s1,a0
    31a2:	892e                	mv	s2,a1
    31a4:	8432                	mv	s0,a2
    31a6:	c501                	beqz	a0,31ae <__swbuf_r+0x1a>
    31a8:	4d1c                	lw	a5,24(a0)
    31aa:	e391                	bnez	a5,31ae <__swbuf_r+0x1a>
    31ac:	26ed                	jal	3596 <__sinit>
    31ae:	00001797          	auipc	a5,0x1
    31b2:	34a78793          	addi	a5,a5,842 # 44f8 <__sf_fake_stdin>
    31b6:	06f41763          	bne	s0,a5,3224 <__swbuf_r+0x90>
    31ba:	40c0                	lw	s0,4(s1)
    31bc:	4c1c                	lw	a5,24(s0)
    31be:	c41c                	sw	a5,8(s0)
    31c0:	245e                	lhu	a5,12(s0)
    31c2:	8ba1                	andi	a5,a5,8
    31c4:	c3c1                	beqz	a5,3244 <__swbuf_r+0xb0>
    31c6:	481c                	lw	a5,16(s0)
    31c8:	cfb5                	beqz	a5,3244 <__swbuf_r+0xb0>
    31ca:	481c                	lw	a5,16(s0)
    31cc:	4008                	lw	a0,0(s0)
    31ce:	0ff97993          	andi	s3,s2,255
    31d2:	0ff97913          	andi	s2,s2,255
    31d6:	8d1d                	sub	a0,a0,a5
    31d8:	485c                	lw	a5,20(s0)
    31da:	00f54663          	blt	a0,a5,31e6 <__swbuf_r+0x52>
    31de:	85a2                	mv	a1,s0
    31e0:	8526                	mv	a0,s1
    31e2:	2c69                	jal	347c <_fflush_r>
    31e4:	e525                	bnez	a0,324c <__swbuf_r+0xb8>
    31e6:	441c                	lw	a5,8(s0)
    31e8:	0505                	addi	a0,a0,1
    31ea:	17fd                	addi	a5,a5,-1
    31ec:	c41c                	sw	a5,8(s0)
    31ee:	401c                	lw	a5,0(s0)
    31f0:	00178713          	addi	a4,a5,1
    31f4:	c018                	sw	a4,0(s0)
    31f6:	01378023          	sb	s3,0(a5)
    31fa:	485c                	lw	a5,20(s0)
    31fc:	00a78863          	beq	a5,a0,320c <__swbuf_r+0x78>
    3200:	245e                	lhu	a5,12(s0)
    3202:	8b85                	andi	a5,a5,1
    3204:	cb81                	beqz	a5,3214 <__swbuf_r+0x80>
    3206:	47a9                	li	a5,10
    3208:	00f91663          	bne	s2,a5,3214 <__swbuf_r+0x80>
    320c:	85a2                	mv	a1,s0
    320e:	8526                	mv	a0,s1
    3210:	24b5                	jal	347c <_fflush_r>
    3212:	ed0d                	bnez	a0,324c <__swbuf_r+0xb8>
    3214:	40f2                	lw	ra,28(sp)
    3216:	4462                	lw	s0,24(sp)
    3218:	854a                	mv	a0,s2
    321a:	44d2                	lw	s1,20(sp)
    321c:	4942                	lw	s2,16(sp)
    321e:	49b2                	lw	s3,12(sp)
    3220:	6105                	addi	sp,sp,32
    3222:	8082                	ret
    3224:	00001797          	auipc	a5,0x1
    3228:	2f478793          	addi	a5,a5,756 # 4518 <__sf_fake_stdout>
    322c:	00f41463          	bne	s0,a5,3234 <__swbuf_r+0xa0>
    3230:	4480                	lw	s0,8(s1)
    3232:	b769                	j	31bc <__swbuf_r+0x28>
    3234:	00001797          	auipc	a5,0x1
    3238:	2a478793          	addi	a5,a5,676 # 44d8 <__sf_fake_stderr>
    323c:	f8f410e3          	bne	s0,a5,31bc <__swbuf_r+0x28>
    3240:	44c0                	lw	s0,12(s1)
    3242:	bfad                	j	31bc <__swbuf_r+0x28>
    3244:	85a2                	mv	a1,s0
    3246:	8526                	mv	a0,s1
    3248:	2021                	jal	3250 <__swsetup_r>
    324a:	d141                	beqz	a0,31ca <__swbuf_r+0x36>
    324c:	597d                	li	s2,-1
    324e:	b7d9                	j	3214 <__swbuf_r+0x80>

00003250 <__swsetup_r>:
    3250:	1141                	addi	sp,sp,-16
    3252:	81418793          	addi	a5,gp,-2028 # 20000094 <_impure_ptr>
    3256:	c226                	sw	s1,4(sp)
    3258:	4384                	lw	s1,0(a5)
    325a:	c422                	sw	s0,8(sp)
    325c:	c04a                	sw	s2,0(sp)
    325e:	c606                	sw	ra,12(sp)
    3260:	892a                	mv	s2,a0
    3262:	842e                	mv	s0,a1
    3264:	c489                	beqz	s1,326e <__swsetup_r+0x1e>
    3266:	4c9c                	lw	a5,24(s1)
    3268:	e399                	bnez	a5,326e <__swsetup_r+0x1e>
    326a:	8526                	mv	a0,s1
    326c:	262d                	jal	3596 <__sinit>
    326e:	00001797          	auipc	a5,0x1
    3272:	28a78793          	addi	a5,a5,650 # 44f8 <__sf_fake_stdin>
    3276:	02f41b63          	bne	s0,a5,32ac <__swsetup_r+0x5c>
    327a:	40c0                	lw	s0,4(s1)
    327c:	00c41703          	lh	a4,12(s0)
    3280:	01071793          	slli	a5,a4,0x10
    3284:	83c1                	srli	a5,a5,0x10
    3286:	0087f693          	andi	a3,a5,8
    328a:	eaad                	bnez	a3,32fc <__swsetup_r+0xac>
    328c:	0107f693          	andi	a3,a5,16
    3290:	ee95                	bnez	a3,32cc <__swsetup_r+0x7c>
    3292:	47a5                	li	a5,9
    3294:	00f92023          	sw	a5,0(s2)
    3298:	04076713          	ori	a4,a4,64
    329c:	a45a                	sh	a4,12(s0)
    329e:	557d                	li	a0,-1
    32a0:	40b2                	lw	ra,12(sp)
    32a2:	4422                	lw	s0,8(sp)
    32a4:	4492                	lw	s1,4(sp)
    32a6:	4902                	lw	s2,0(sp)
    32a8:	0141                	addi	sp,sp,16
    32aa:	8082                	ret
    32ac:	00001797          	auipc	a5,0x1
    32b0:	26c78793          	addi	a5,a5,620 # 4518 <__sf_fake_stdout>
    32b4:	00f41463          	bne	s0,a5,32bc <__swsetup_r+0x6c>
    32b8:	4480                	lw	s0,8(s1)
    32ba:	b7c9                	j	327c <__swsetup_r+0x2c>
    32bc:	00001797          	auipc	a5,0x1
    32c0:	21c78793          	addi	a5,a5,540 # 44d8 <__sf_fake_stderr>
    32c4:	faf41ce3          	bne	s0,a5,327c <__swsetup_r+0x2c>
    32c8:	44c0                	lw	s0,12(s1)
    32ca:	bf4d                	j	327c <__swsetup_r+0x2c>
    32cc:	8b91                	andi	a5,a5,4
    32ce:	c39d                	beqz	a5,32f4 <__swsetup_r+0xa4>
    32d0:	584c                	lw	a1,52(s0)
    32d2:	c989                	beqz	a1,32e4 <__swsetup_r+0x94>
    32d4:	04440793          	addi	a5,s0,68
    32d8:	00f58463          	beq	a1,a5,32e0 <__swsetup_r+0x90>
    32dc:	854a                	mv	a0,s2
    32de:	2331                	jal	37ea <_free_r>
    32e0:	02042a23          	sw	zero,52(s0)
    32e4:	245e                	lhu	a5,12(s0)
    32e6:	00042223          	sw	zero,4(s0)
    32ea:	fdb7f793          	andi	a5,a5,-37
    32ee:	a45e                	sh	a5,12(s0)
    32f0:	481c                	lw	a5,16(s0)
    32f2:	c01c                	sw	a5,0(s0)
    32f4:	245e                	lhu	a5,12(s0)
    32f6:	0087e793          	ori	a5,a5,8
    32fa:	a45e                	sh	a5,12(s0)
    32fc:	481c                	lw	a5,16(s0)
    32fe:	eb99                	bnez	a5,3314 <__swsetup_r+0xc4>
    3300:	245e                	lhu	a5,12(s0)
    3302:	20000713          	li	a4,512
    3306:	2807f793          	andi	a5,a5,640
    330a:	00e78563          	beq	a5,a4,3314 <__swsetup_r+0xc4>
    330e:	85a2                	mv	a1,s0
    3310:	854a                	mv	a0,s2
    3312:	21a1                	jal	375a <__smakebuf_r>
    3314:	245e                	lhu	a5,12(s0)
    3316:	0017f713          	andi	a4,a5,1
    331a:	c31d                	beqz	a4,3340 <__swsetup_r+0xf0>
    331c:	485c                	lw	a5,20(s0)
    331e:	00042423          	sw	zero,8(s0)
    3322:	40f007b3          	neg	a5,a5
    3326:	cc1c                	sw	a5,24(s0)
    3328:	481c                	lw	a5,16(s0)
    332a:	4501                	li	a0,0
    332c:	fbb5                	bnez	a5,32a0 <__swsetup_r+0x50>
    332e:	00c41783          	lh	a5,12(s0)
    3332:	0807f713          	andi	a4,a5,128
    3336:	d72d                	beqz	a4,32a0 <__swsetup_r+0x50>
    3338:	0407e793          	ori	a5,a5,64
    333c:	a45e                	sh	a5,12(s0)
    333e:	b785                	j	329e <__swsetup_r+0x4e>
    3340:	8b89                	andi	a5,a5,2
    3342:	4701                	li	a4,0
    3344:	e391                	bnez	a5,3348 <__swsetup_r+0xf8>
    3346:	4858                	lw	a4,20(s0)
    3348:	c418                	sw	a4,8(s0)
    334a:	bff9                	j	3328 <__swsetup_r+0xd8>

0000334c <__sflush_r>:
    334c:	25de                	lhu	a5,12(a1)
    334e:	1101                	addi	sp,sp,-32
    3350:	cc22                	sw	s0,24(sp)
    3352:	ca26                	sw	s1,20(sp)
    3354:	ce06                	sw	ra,28(sp)
    3356:	c84a                	sw	s2,16(sp)
    3358:	c64e                	sw	s3,12(sp)
    335a:	0087f713          	andi	a4,a5,8
    335e:	84aa                	mv	s1,a0
    3360:	842e                	mv	s0,a1
    3362:	eb79                	bnez	a4,3438 <__sflush_r+0xec>
    3364:	41d8                	lw	a4,4(a1)
    3366:	00e04d63          	bgtz	a4,3380 <__sflush_r+0x34>
    336a:	41b8                	lw	a4,64(a1)
    336c:	00e04a63          	bgtz	a4,3380 <__sflush_r+0x34>
    3370:	4501                	li	a0,0
    3372:	40f2                	lw	ra,28(sp)
    3374:	4462                	lw	s0,24(sp)
    3376:	44d2                	lw	s1,20(sp)
    3378:	4942                	lw	s2,16(sp)
    337a:	49b2                	lw	s3,12(sp)
    337c:	6105                	addi	sp,sp,32
    337e:	8082                	ret
    3380:	5458                	lw	a4,44(s0)
    3382:	d77d                	beqz	a4,3370 <__sflush_r+0x24>
    3384:	0004a903          	lw	s2,0(s1)
    3388:	01379693          	slli	a3,a5,0x13
    338c:	0004a023          	sw	zero,0(s1)
    3390:	0606db63          	bgez	a3,3406 <__sflush_r+0xba>
    3394:	4870                	lw	a2,84(s0)
    3396:	245e                	lhu	a5,12(s0)
    3398:	8b91                	andi	a5,a5,4
    339a:	c799                	beqz	a5,33a8 <__sflush_r+0x5c>
    339c:	405c                	lw	a5,4(s0)
    339e:	8e1d                	sub	a2,a2,a5
    33a0:	585c                	lw	a5,52(s0)
    33a2:	c399                	beqz	a5,33a8 <__sflush_r+0x5c>
    33a4:	403c                	lw	a5,64(s0)
    33a6:	8e1d                	sub	a2,a2,a5
    33a8:	545c                	lw	a5,44(s0)
    33aa:	500c                	lw	a1,32(s0)
    33ac:	4681                	li	a3,0
    33ae:	8526                	mv	a0,s1
    33b0:	9782                	jalr	a5
    33b2:	57fd                	li	a5,-1
    33b4:	245a                	lhu	a4,12(s0)
    33b6:	00f51d63          	bne	a0,a5,33d0 <__sflush_r+0x84>
    33ba:	4094                	lw	a3,0(s1)
    33bc:	47f5                	li	a5,29
    33be:	06d7e863          	bltu	a5,a3,342e <__sflush_r+0xe2>
    33c2:	204007b7          	lui	a5,0x20400
    33c6:	0785                	addi	a5,a5,1
    33c8:	00d7d7b3          	srl	a5,a5,a3
    33cc:	8b85                	andi	a5,a5,1
    33ce:	c3a5                	beqz	a5,342e <__sflush_r+0xe2>
    33d0:	481c                	lw	a5,16(s0)
    33d2:	00042223          	sw	zero,4(s0)
    33d6:	c01c                	sw	a5,0(s0)
    33d8:	01371793          	slli	a5,a4,0x13
    33dc:	0007d863          	bgez	a5,33ec <__sflush_r+0xa0>
    33e0:	57fd                	li	a5,-1
    33e2:	00f51463          	bne	a0,a5,33ea <__sflush_r+0x9e>
    33e6:	409c                	lw	a5,0(s1)
    33e8:	e391                	bnez	a5,33ec <__sflush_r+0xa0>
    33ea:	c868                	sw	a0,84(s0)
    33ec:	584c                	lw	a1,52(s0)
    33ee:	0124a023          	sw	s2,0(s1)
    33f2:	ddbd                	beqz	a1,3370 <__sflush_r+0x24>
    33f4:	04440793          	addi	a5,s0,68
    33f8:	00f58463          	beq	a1,a5,3400 <__sflush_r+0xb4>
    33fc:	8526                	mv	a0,s1
    33fe:	26f5                	jal	37ea <_free_r>
    3400:	02042a23          	sw	zero,52(s0)
    3404:	b7b5                	j	3370 <__sflush_r+0x24>
    3406:	500c                	lw	a1,32(s0)
    3408:	4601                	li	a2,0
    340a:	4685                	li	a3,1
    340c:	8526                	mv	a0,s1
    340e:	9702                	jalr	a4
    3410:	57fd                	li	a5,-1
    3412:	862a                	mv	a2,a0
    3414:	f8f511e3          	bne	a0,a5,3396 <__sflush_r+0x4a>
    3418:	409c                	lw	a5,0(s1)
    341a:	dfb5                	beqz	a5,3396 <__sflush_r+0x4a>
    341c:	4775                	li	a4,29
    341e:	00e78563          	beq	a5,a4,3428 <__sflush_r+0xdc>
    3422:	4759                	li	a4,22
    3424:	04e79363          	bne	a5,a4,346a <__sflush_r+0x11e>
    3428:	0124a023          	sw	s2,0(s1)
    342c:	b791                	j	3370 <__sflush_r+0x24>
    342e:	04076713          	ori	a4,a4,64
    3432:	a45a                	sh	a4,12(s0)
    3434:	557d                	li	a0,-1
    3436:	bf35                	j	3372 <__sflush_r+0x26>
    3438:	0105a983          	lw	s3,16(a1)
    343c:	f2098ae3          	beqz	s3,3370 <__sflush_r+0x24>
    3440:	0005a903          	lw	s2,0(a1)
    3444:	8b8d                	andi	a5,a5,3
    3446:	0135a023          	sw	s3,0(a1)
    344a:	41390933          	sub	s2,s2,s3
    344e:	4701                	li	a4,0
    3450:	e391                	bnez	a5,3454 <__sflush_r+0x108>
    3452:	49d8                	lw	a4,20(a1)
    3454:	c418                	sw	a4,8(s0)
    3456:	f1205de3          	blez	s2,3370 <__sflush_r+0x24>
    345a:	541c                	lw	a5,40(s0)
    345c:	500c                	lw	a1,32(s0)
    345e:	86ca                	mv	a3,s2
    3460:	864e                	mv	a2,s3
    3462:	8526                	mv	a0,s1
    3464:	9782                	jalr	a5
    3466:	00a04763          	bgtz	a0,3474 <__sflush_r+0x128>
    346a:	245e                	lhu	a5,12(s0)
    346c:	0407e793          	ori	a5,a5,64
    3470:	a45e                	sh	a5,12(s0)
    3472:	b7c9                	j	3434 <__sflush_r+0xe8>
    3474:	99aa                	add	s3,s3,a0
    3476:	40a90933          	sub	s2,s2,a0
    347a:	bff1                	j	3456 <__sflush_r+0x10a>

0000347c <_fflush_r>:
    347c:	499c                	lw	a5,16(a1)
    347e:	cfb9                	beqz	a5,34dc <_fflush_r+0x60>
    3480:	1101                	addi	sp,sp,-32
    3482:	cc22                	sw	s0,24(sp)
    3484:	ce06                	sw	ra,28(sp)
    3486:	842a                	mv	s0,a0
    3488:	c511                	beqz	a0,3494 <_fflush_r+0x18>
    348a:	4d1c                	lw	a5,24(a0)
    348c:	e781                	bnez	a5,3494 <_fflush_r+0x18>
    348e:	c62e                	sw	a1,12(sp)
    3490:	2219                	jal	3596 <__sinit>
    3492:	45b2                	lw	a1,12(sp)
    3494:	00001797          	auipc	a5,0x1
    3498:	06478793          	addi	a5,a5,100 # 44f8 <__sf_fake_stdin>
    349c:	00f59b63          	bne	a1,a5,34b2 <_fflush_r+0x36>
    34a0:	404c                	lw	a1,4(s0)
    34a2:	00c59783          	lh	a5,12(a1)
    34a6:	c795                	beqz	a5,34d2 <_fflush_r+0x56>
    34a8:	8522                	mv	a0,s0
    34aa:	4462                	lw	s0,24(sp)
    34ac:	40f2                	lw	ra,28(sp)
    34ae:	6105                	addi	sp,sp,32
    34b0:	bd71                	j	334c <__sflush_r>
    34b2:	00001797          	auipc	a5,0x1
    34b6:	06678793          	addi	a5,a5,102 # 4518 <__sf_fake_stdout>
    34ba:	00f59463          	bne	a1,a5,34c2 <_fflush_r+0x46>
    34be:	440c                	lw	a1,8(s0)
    34c0:	b7cd                	j	34a2 <_fflush_r+0x26>
    34c2:	00001797          	auipc	a5,0x1
    34c6:	01678793          	addi	a5,a5,22 # 44d8 <__sf_fake_stderr>
    34ca:	fcf59ce3          	bne	a1,a5,34a2 <_fflush_r+0x26>
    34ce:	444c                	lw	a1,12(s0)
    34d0:	bfc9                	j	34a2 <_fflush_r+0x26>
    34d2:	40f2                	lw	ra,28(sp)
    34d4:	4462                	lw	s0,24(sp)
    34d6:	4501                	li	a0,0
    34d8:	6105                	addi	sp,sp,32
    34da:	8082                	ret
    34dc:	4501                	li	a0,0
    34de:	8082                	ret

000034e0 <std>:
    34e0:	1141                	addi	sp,sp,-16
    34e2:	c422                	sw	s0,8(sp)
    34e4:	c606                	sw	ra,12(sp)
    34e6:	842a                	mv	s0,a0
    34e8:	a54e                	sh	a1,12(a0)
    34ea:	a572                	sh	a2,14(a0)
    34ec:	00052023          	sw	zero,0(a0)
    34f0:	00052223          	sw	zero,4(a0)
    34f4:	00052423          	sw	zero,8(a0)
    34f8:	06052223          	sw	zero,100(a0)
    34fc:	00052823          	sw	zero,16(a0)
    3500:	00052a23          	sw	zero,20(a0)
    3504:	00052c23          	sw	zero,24(a0)
    3508:	4621                	li	a2,8
    350a:	4581                	li	a1,0
    350c:	05c50513          	addi	a0,a0,92
    3510:	836fd0ef          	jal	ra,546 <memset>
    3514:	00001797          	auipc	a5,0x1
    3518:	bc278793          	addi	a5,a5,-1086 # 40d6 <__sread>
    351c:	d05c                	sw	a5,36(s0)
    351e:	00001797          	auipc	a5,0x1
    3522:	be478793          	addi	a5,a5,-1052 # 4102 <__swrite>
    3526:	d41c                	sw	a5,40(s0)
    3528:	00001797          	auipc	a5,0x1
    352c:	c2278793          	addi	a5,a5,-990 # 414a <__sseek>
    3530:	d45c                	sw	a5,44(s0)
    3532:	00001797          	auipc	a5,0x1
    3536:	c4878793          	addi	a5,a5,-952 # 417a <__sclose>
    353a:	d000                	sw	s0,32(s0)
    353c:	d81c                	sw	a5,48(s0)
    353e:	40b2                	lw	ra,12(sp)
    3540:	4422                	lw	s0,8(sp)
    3542:	0141                	addi	sp,sp,16
    3544:	8082                	ret

00003546 <_cleanup_r>:
    3546:	00000597          	auipc	a1,0x0
    354a:	f3658593          	addi	a1,a1,-202 # 347c <_fflush_r>
    354e:	a2a9                	j	3698 <_fwalk_reent>

00003550 <__sfmoreglue>:
    3550:	1141                	addi	sp,sp,-16
    3552:	c226                	sw	s1,4(sp)
    3554:	06800613          	li	a2,104
    3558:	fff58493          	addi	s1,a1,-1
    355c:	02c484b3          	mul	s1,s1,a2
    3560:	c04a                	sw	s2,0(sp)
    3562:	892e                	mv	s2,a1
    3564:	c422                	sw	s0,8(sp)
    3566:	c606                	sw	ra,12(sp)
    3568:	07448593          	addi	a1,s1,116
    356c:	263d                	jal	389a <_malloc_r>
    356e:	842a                	mv	s0,a0
    3570:	cd01                	beqz	a0,3588 <__sfmoreglue+0x38>
    3572:	00052023          	sw	zero,0(a0)
    3576:	01252223          	sw	s2,4(a0)
    357a:	0531                	addi	a0,a0,12
    357c:	c408                	sw	a0,8(s0)
    357e:	06848613          	addi	a2,s1,104
    3582:	4581                	li	a1,0
    3584:	fc3fc0ef          	jal	ra,546 <memset>
    3588:	8522                	mv	a0,s0
    358a:	40b2                	lw	ra,12(sp)
    358c:	4422                	lw	s0,8(sp)
    358e:	4492                	lw	s1,4(sp)
    3590:	4902                	lw	s2,0(sp)
    3592:	0141                	addi	sp,sp,16
    3594:	8082                	ret

00003596 <__sinit>:
    3596:	4d1c                	lw	a5,24(a0)
    3598:	e3ad                	bnez	a5,35fa <__sinit+0x64>
    359a:	1141                	addi	sp,sp,-16
    359c:	c606                	sw	ra,12(sp)
    359e:	c422                	sw	s0,8(sp)
    35a0:	00000797          	auipc	a5,0x0
    35a4:	fa678793          	addi	a5,a5,-90 # 3546 <_cleanup_r>
    35a8:	d51c                	sw	a5,40(a0)
    35aa:	81c18793          	addi	a5,gp,-2020 # 2000009c <_global_impure_ptr>
    35ae:	439c                	lw	a5,0(a5)
    35b0:	04052423          	sw	zero,72(a0)
    35b4:	04052623          	sw	zero,76(a0)
    35b8:	04052823          	sw	zero,80(a0)
    35bc:	00f51463          	bne	a0,a5,35c4 <__sinit+0x2e>
    35c0:	4785                	li	a5,1
    35c2:	cd1c                	sw	a5,24(a0)
    35c4:	842a                	mv	s0,a0
    35c6:	281d                	jal	35fc <__sfp>
    35c8:	c048                	sw	a0,4(s0)
    35ca:	8522                	mv	a0,s0
    35cc:	2805                	jal	35fc <__sfp>
    35ce:	c408                	sw	a0,8(s0)
    35d0:	8522                	mv	a0,s0
    35d2:	202d                	jal	35fc <__sfp>
    35d4:	c448                	sw	a0,12(s0)
    35d6:	4048                	lw	a0,4(s0)
    35d8:	4601                	li	a2,0
    35da:	4591                	li	a1,4
    35dc:	3711                	jal	34e0 <std>
    35de:	4408                	lw	a0,8(s0)
    35e0:	4605                	li	a2,1
    35e2:	45a5                	li	a1,9
    35e4:	3df5                	jal	34e0 <std>
    35e6:	4448                	lw	a0,12(s0)
    35e8:	4609                	li	a2,2
    35ea:	45c9                	li	a1,18
    35ec:	3dd5                	jal	34e0 <std>
    35ee:	4785                	li	a5,1
    35f0:	cc1c                	sw	a5,24(s0)
    35f2:	40b2                	lw	ra,12(sp)
    35f4:	4422                	lw	s0,8(sp)
    35f6:	0141                	addi	sp,sp,16
    35f8:	8082                	ret
    35fa:	8082                	ret

000035fc <__sfp>:
    35fc:	1141                	addi	sp,sp,-16
    35fe:	81c18793          	addi	a5,gp,-2020 # 2000009c <_global_impure_ptr>
    3602:	c226                	sw	s1,4(sp)
    3604:	4384                	lw	s1,0(a5)
    3606:	c04a                	sw	s2,0(sp)
    3608:	c606                	sw	ra,12(sp)
    360a:	4c9c                	lw	a5,24(s1)
    360c:	c422                	sw	s0,8(sp)
    360e:	892a                	mv	s2,a0
    3610:	e399                	bnez	a5,3616 <__sfp+0x1a>
    3612:	8526                	mv	a0,s1
    3614:	3749                	jal	3596 <__sinit>
    3616:	04848493          	addi	s1,s1,72
    361a:	4480                	lw	s0,8(s1)
    361c:	40dc                	lw	a5,4(s1)
    361e:	17fd                	addi	a5,a5,-1
    3620:	0007d663          	bgez	a5,362c <__sfp+0x30>
    3624:	409c                	lw	a5,0(s1)
    3626:	cfb9                	beqz	a5,3684 <__sfp+0x88>
    3628:	4084                	lw	s1,0(s1)
    362a:	bfc5                	j	361a <__sfp+0x1e>
    362c:	00c41703          	lh	a4,12(s0)
    3630:	e739                	bnez	a4,367e <__sfp+0x82>
    3632:	77c1                	lui	a5,0xffff0
    3634:	0785                	addi	a5,a5,1
    3636:	06042223          	sw	zero,100(s0)
    363a:	00042023          	sw	zero,0(s0)
    363e:	00042223          	sw	zero,4(s0)
    3642:	00042423          	sw	zero,8(s0)
    3646:	c45c                	sw	a5,12(s0)
    3648:	00042823          	sw	zero,16(s0)
    364c:	00042a23          	sw	zero,20(s0)
    3650:	00042c23          	sw	zero,24(s0)
    3654:	4621                	li	a2,8
    3656:	4581                	li	a1,0
    3658:	05c40513          	addi	a0,s0,92
    365c:	eebfc0ef          	jal	ra,546 <memset>
    3660:	02042a23          	sw	zero,52(s0)
    3664:	02042c23          	sw	zero,56(s0)
    3668:	04042423          	sw	zero,72(s0)
    366c:	04042623          	sw	zero,76(s0)
    3670:	8522                	mv	a0,s0
    3672:	40b2                	lw	ra,12(sp)
    3674:	4422                	lw	s0,8(sp)
    3676:	4492                	lw	s1,4(sp)
    3678:	4902                	lw	s2,0(sp)
    367a:	0141                	addi	sp,sp,16
    367c:	8082                	ret
    367e:	06840413          	addi	s0,s0,104
    3682:	bf71                	j	361e <__sfp+0x22>
    3684:	4591                	li	a1,4
    3686:	854a                	mv	a0,s2
    3688:	35e1                	jal	3550 <__sfmoreglue>
    368a:	c088                	sw	a0,0(s1)
    368c:	fd51                	bnez	a0,3628 <__sfp+0x2c>
    368e:	47b1                	li	a5,12
    3690:	00f92023          	sw	a5,0(s2)
    3694:	4401                	li	s0,0
    3696:	bfe9                	j	3670 <__sfp+0x74>

00003698 <_fwalk_reent>:
    3698:	7179                	addi	sp,sp,-48
    369a:	d422                	sw	s0,40(sp)
    369c:	d04a                	sw	s2,32(sp)
    369e:	cc52                	sw	s4,24(sp)
    36a0:	ca56                	sw	s5,20(sp)
    36a2:	c85a                	sw	s6,16(sp)
    36a4:	c65e                	sw	s7,12(sp)
    36a6:	d606                	sw	ra,44(sp)
    36a8:	d226                	sw	s1,36(sp)
    36aa:	ce4e                	sw	s3,28(sp)
    36ac:	8a2a                	mv	s4,a0
    36ae:	8aae                	mv	s5,a1
    36b0:	04850413          	addi	s0,a0,72
    36b4:	4901                	li	s2,0
    36b6:	4b05                	li	s6,1
    36b8:	5bfd                	li	s7,-1
    36ba:	ec09                	bnez	s0,36d4 <_fwalk_reent+0x3c>
    36bc:	50b2                	lw	ra,44(sp)
    36be:	5422                	lw	s0,40(sp)
    36c0:	854a                	mv	a0,s2
    36c2:	5492                	lw	s1,36(sp)
    36c4:	5902                	lw	s2,32(sp)
    36c6:	49f2                	lw	s3,28(sp)
    36c8:	4a62                	lw	s4,24(sp)
    36ca:	4ad2                	lw	s5,20(sp)
    36cc:	4b42                	lw	s6,16(sp)
    36ce:	4bb2                	lw	s7,12(sp)
    36d0:	6145                	addi	sp,sp,48
    36d2:	8082                	ret
    36d4:	4404                	lw	s1,8(s0)
    36d6:	00442983          	lw	s3,4(s0)
    36da:	19fd                	addi	s3,s3,-1
    36dc:	0009d463          	bgez	s3,36e4 <_fwalk_reent+0x4c>
    36e0:	4000                	lw	s0,0(s0)
    36e2:	bfe1                	j	36ba <_fwalk_reent+0x22>
    36e4:	24de                	lhu	a5,12(s1)
    36e6:	00fb7b63          	bgeu	s6,a5,36fc <_fwalk_reent+0x64>
    36ea:	00e49783          	lh	a5,14(s1)
    36ee:	01778763          	beq	a5,s7,36fc <_fwalk_reent+0x64>
    36f2:	85a6                	mv	a1,s1
    36f4:	8552                	mv	a0,s4
    36f6:	9a82                	jalr	s5
    36f8:	00a96933          	or	s2,s2,a0
    36fc:	06848493          	addi	s1,s1,104
    3700:	bfe9                	j	36da <_fwalk_reent+0x42>

00003702 <__swhatbuf_r>:
    3702:	7119                	addi	sp,sp,-128
    3704:	daa6                	sw	s1,116(sp)
    3706:	84ae                	mv	s1,a1
    3708:	00e59583          	lh	a1,14(a1)
    370c:	dca2                	sw	s0,120(sp)
    370e:	de86                	sw	ra,124(sp)
    3710:	8432                	mv	s0,a2
    3712:	0005db63          	bgez	a1,3728 <__swhatbuf_r+0x26>
    3716:	24de                	lhu	a5,12(s1)
    3718:	0006a023          	sw	zero,0(a3)
    371c:	0807f793          	andi	a5,a5,128
    3720:	e785                	bnez	a5,3748 <__swhatbuf_r+0x46>
    3722:	40000793          	li	a5,1024
    3726:	a01d                	j	374c <__swhatbuf_r+0x4a>
    3728:	0830                	addi	a2,sp,24
    372a:	c636                	sw	a3,12(sp)
    372c:	2bb000ef          	jal	ra,41e6 <_fstat_r>
    3730:	46b2                	lw	a3,12(sp)
    3732:	fe0542e3          	bltz	a0,3716 <__swhatbuf_r+0x14>
    3736:	4772                	lw	a4,28(sp)
    3738:	67bd                	lui	a5,0xf
    373a:	8ff9                	and	a5,a5,a4
    373c:	7779                	lui	a4,0xffffe
    373e:	97ba                	add	a5,a5,a4
    3740:	0017b793          	seqz	a5,a5
    3744:	c29c                	sw	a5,0(a3)
    3746:	bff1                	j	3722 <__swhatbuf_r+0x20>
    3748:	04000793          	li	a5,64
    374c:	c01c                	sw	a5,0(s0)
    374e:	50f6                	lw	ra,124(sp)
    3750:	5466                	lw	s0,120(sp)
    3752:	54d6                	lw	s1,116(sp)
    3754:	4501                	li	a0,0
    3756:	6109                	addi	sp,sp,128
    3758:	8082                	ret

0000375a <__smakebuf_r>:
    375a:	25de                	lhu	a5,12(a1)
    375c:	1101                	addi	sp,sp,-32
    375e:	cc22                	sw	s0,24(sp)
    3760:	ce06                	sw	ra,28(sp)
    3762:	ca26                	sw	s1,20(sp)
    3764:	c84a                	sw	s2,16(sp)
    3766:	8b89                	andi	a5,a5,2
    3768:	842e                	mv	s0,a1
    376a:	cf89                	beqz	a5,3784 <__smakebuf_r+0x2a>
    376c:	04740793          	addi	a5,s0,71
    3770:	c01c                	sw	a5,0(s0)
    3772:	c81c                	sw	a5,16(s0)
    3774:	4785                	li	a5,1
    3776:	c85c                	sw	a5,20(s0)
    3778:	40f2                	lw	ra,28(sp)
    377a:	4462                	lw	s0,24(sp)
    377c:	44d2                	lw	s1,20(sp)
    377e:	4942                	lw	s2,16(sp)
    3780:	6105                	addi	sp,sp,32
    3782:	8082                	ret
    3784:	0074                	addi	a3,sp,12
    3786:	0030                	addi	a2,sp,8
    3788:	84aa                	mv	s1,a0
    378a:	3fa5                	jal	3702 <__swhatbuf_r>
    378c:	45a2                	lw	a1,8(sp)
    378e:	892a                	mv	s2,a0
    3790:	8526                	mv	a0,s1
    3792:	2221                	jal	389a <_malloc_r>
    3794:	e919                	bnez	a0,37aa <__smakebuf_r+0x50>
    3796:	00c41783          	lh	a5,12(s0)
    379a:	2007f713          	andi	a4,a5,512
    379e:	ff69                	bnez	a4,3778 <__smakebuf_r+0x1e>
    37a0:	9bf1                	andi	a5,a5,-4
    37a2:	0027e793          	ori	a5,a5,2
    37a6:	a45e                	sh	a5,12(s0)
    37a8:	b7d1                	j	376c <__smakebuf_r+0x12>
    37aa:	00000797          	auipc	a5,0x0
    37ae:	d9c78793          	addi	a5,a5,-612 # 3546 <_cleanup_r>
    37b2:	d49c                	sw	a5,40(s1)
    37b4:	245e                	lhu	a5,12(s0)
    37b6:	c008                	sw	a0,0(s0)
    37b8:	c808                	sw	a0,16(s0)
    37ba:	0807e793          	ori	a5,a5,128
    37be:	a45e                	sh	a5,12(s0)
    37c0:	47a2                	lw	a5,8(sp)
    37c2:	c85c                	sw	a5,20(s0)
    37c4:	47b2                	lw	a5,12(sp)
    37c6:	cf81                	beqz	a5,37de <__smakebuf_r+0x84>
    37c8:	00e41583          	lh	a1,14(s0)
    37cc:	8526                	mv	a0,s1
    37ce:	24b000ef          	jal	ra,4218 <_isatty_r>
    37d2:	c511                	beqz	a0,37de <__smakebuf_r+0x84>
    37d4:	245e                	lhu	a5,12(s0)
    37d6:	9bf1                	andi	a5,a5,-4
    37d8:	0017e793          	ori	a5,a5,1
    37dc:	a45e                	sh	a5,12(s0)
    37de:	245e                	lhu	a5,12(s0)
    37e0:	00f96933          	or	s2,s2,a5
    37e4:	01241623          	sh	s2,12(s0)
    37e8:	bf41                	j	3778 <__smakebuf_r+0x1e>

000037ea <_free_r>:
    37ea:	c5dd                	beqz	a1,3898 <_free_r+0xae>
    37ec:	ffc5a783          	lw	a5,-4(a1)
    37f0:	1141                	addi	sp,sp,-16
    37f2:	c422                	sw	s0,8(sp)
    37f4:	c606                	sw	ra,12(sp)
    37f6:	c226                	sw	s1,4(sp)
    37f8:	ffc58413          	addi	s0,a1,-4
    37fc:	0007d363          	bgez	a5,3802 <_free_r+0x18>
    3800:	943e                	add	s0,s0,a5
    3802:	84aa                	mv	s1,a0
    3804:	291000ef          	jal	ra,4294 <__malloc_lock>
    3808:	1fffd797          	auipc	a5,0x1fffd
    380c:	91878793          	addi	a5,a5,-1768 # 20000120 <__malloc_free_list>
    3810:	439c                	lw	a5,0(a5)
    3812:	ef91                	bnez	a5,382e <_free_r+0x44>
    3814:	00042223          	sw	zero,4(s0)
    3818:	1fffd797          	auipc	a5,0x1fffd
    381c:	9087a423          	sw	s0,-1784(a5) # 20000120 <__malloc_free_list>
    3820:	4422                	lw	s0,8(sp)
    3822:	40b2                	lw	ra,12(sp)
    3824:	8526                	mv	a0,s1
    3826:	4492                	lw	s1,4(sp)
    3828:	0141                	addi	sp,sp,16
    382a:	26d0006f          	j	4296 <__malloc_unlock>
    382e:	00f47e63          	bgeu	s0,a5,384a <_free_r+0x60>
    3832:	4014                	lw	a3,0(s0)
    3834:	00d40733          	add	a4,s0,a3
    3838:	00e79663          	bne	a5,a4,3844 <_free_r+0x5a>
    383c:	4398                	lw	a4,0(a5)
    383e:	43dc                	lw	a5,4(a5)
    3840:	9736                	add	a4,a4,a3
    3842:	c018                	sw	a4,0(s0)
    3844:	c05c                	sw	a5,4(s0)
    3846:	bfc9                	j	3818 <_free_r+0x2e>
    3848:	87ba                	mv	a5,a4
    384a:	43d8                	lw	a4,4(a5)
    384c:	c319                	beqz	a4,3852 <_free_r+0x68>
    384e:	fee47de3          	bgeu	s0,a4,3848 <_free_r+0x5e>
    3852:	4394                	lw	a3,0(a5)
    3854:	00d78633          	add	a2,a5,a3
    3858:	00861f63          	bne	a2,s0,3876 <_free_r+0x8c>
    385c:	4010                	lw	a2,0(s0)
    385e:	96b2                	add	a3,a3,a2
    3860:	c394                	sw	a3,0(a5)
    3862:	00d78633          	add	a2,a5,a3
    3866:	fac71de3          	bne	a4,a2,3820 <_free_r+0x36>
    386a:	4310                	lw	a2,0(a4)
    386c:	4358                	lw	a4,4(a4)
    386e:	96b2                	add	a3,a3,a2
    3870:	c394                	sw	a3,0(a5)
    3872:	c3d8                	sw	a4,4(a5)
    3874:	b775                	j	3820 <_free_r+0x36>
    3876:	00c47563          	bgeu	s0,a2,3880 <_free_r+0x96>
    387a:	47b1                	li	a5,12
    387c:	c09c                	sw	a5,0(s1)
    387e:	b74d                	j	3820 <_free_r+0x36>
    3880:	4010                	lw	a2,0(s0)
    3882:	00c406b3          	add	a3,s0,a2
    3886:	00d71663          	bne	a4,a3,3892 <_free_r+0xa8>
    388a:	4314                	lw	a3,0(a4)
    388c:	4358                	lw	a4,4(a4)
    388e:	96b2                	add	a3,a3,a2
    3890:	c014                	sw	a3,0(s0)
    3892:	c058                	sw	a4,4(s0)
    3894:	c3c0                	sw	s0,4(a5)
    3896:	b769                	j	3820 <_free_r+0x36>
    3898:	8082                	ret

0000389a <_malloc_r>:
    389a:	1101                	addi	sp,sp,-32
    389c:	ca26                	sw	s1,20(sp)
    389e:	00358493          	addi	s1,a1,3
    38a2:	98f1                	andi	s1,s1,-4
    38a4:	ce06                	sw	ra,28(sp)
    38a6:	cc22                	sw	s0,24(sp)
    38a8:	c84a                	sw	s2,16(sp)
    38aa:	c64e                	sw	s3,12(sp)
    38ac:	04a1                	addi	s1,s1,8
    38ae:	47b1                	li	a5,12
    38b0:	04f4fb63          	bgeu	s1,a5,3906 <_malloc_r+0x6c>
    38b4:	44b1                	li	s1,12
    38b6:	04b4ea63          	bltu	s1,a1,390a <_malloc_r+0x70>
    38ba:	892a                	mv	s2,a0
    38bc:	1d9000ef          	jal	ra,4294 <__malloc_lock>
    38c0:	1fffd797          	auipc	a5,0x1fffd
    38c4:	86078793          	addi	a5,a5,-1952 # 20000120 <__malloc_free_list>
    38c8:	4398                	lw	a4,0(a5)
    38ca:	843a                	mv	s0,a4
    38cc:	e829                	bnez	s0,391e <_malloc_r+0x84>
    38ce:	1fffd797          	auipc	a5,0x1fffd
    38d2:	85678793          	addi	a5,a5,-1962 # 20000124 <__malloc_sbrk_start>
    38d6:	439c                	lw	a5,0(a5)
    38d8:	eb89                	bnez	a5,38ea <_malloc_r+0x50>
    38da:	4581                	li	a1,0
    38dc:	854a                	mv	a0,s2
    38de:	7c6000ef          	jal	ra,40a4 <_sbrk_r>
    38e2:	1fffd797          	auipc	a5,0x1fffd
    38e6:	84a7a123          	sw	a0,-1982(a5) # 20000124 <__malloc_sbrk_start>
    38ea:	85a6                	mv	a1,s1
    38ec:	854a                	mv	a0,s2
    38ee:	7b6000ef          	jal	ra,40a4 <_sbrk_r>
    38f2:	59fd                	li	s3,-1
    38f4:	07351b63          	bne	a0,s3,396a <_malloc_r+0xd0>
    38f8:	47b1                	li	a5,12
    38fa:	00f92023          	sw	a5,0(s2)
    38fe:	854a                	mv	a0,s2
    3900:	197000ef          	jal	ra,4296 <__malloc_unlock>
    3904:	a029                	j	390e <_malloc_r+0x74>
    3906:	fa04d8e3          	bgez	s1,38b6 <_malloc_r+0x1c>
    390a:	47b1                	li	a5,12
    390c:	c11c                	sw	a5,0(a0)
    390e:	4501                	li	a0,0
    3910:	40f2                	lw	ra,28(sp)
    3912:	4462                	lw	s0,24(sp)
    3914:	44d2                	lw	s1,20(sp)
    3916:	4942                	lw	s2,16(sp)
    3918:	49b2                	lw	s3,12(sp)
    391a:	6105                	addi	sp,sp,32
    391c:	8082                	ret
    391e:	401c                	lw	a5,0(s0)
    3920:	8f85                	sub	a5,a5,s1
    3922:	0407c163          	bltz	a5,3964 <_malloc_r+0xca>
    3926:	46ad                	li	a3,11
    3928:	00f6f663          	bgeu	a3,a5,3934 <_malloc_r+0x9a>
    392c:	c01c                	sw	a5,0(s0)
    392e:	943e                	add	s0,s0,a5
    3930:	c004                	sw	s1,0(s0)
    3932:	a801                	j	3942 <_malloc_r+0xa8>
    3934:	405c                	lw	a5,4(s0)
    3936:	02871563          	bne	a4,s0,3960 <_malloc_r+0xc6>
    393a:	1fffc717          	auipc	a4,0x1fffc
    393e:	7ef72323          	sw	a5,2022(a4) # 20000120 <__malloc_free_list>
    3942:	854a                	mv	a0,s2
    3944:	153000ef          	jal	ra,4296 <__malloc_unlock>
    3948:	00b40513          	addi	a0,s0,11
    394c:	00440793          	addi	a5,s0,4
    3950:	9961                	andi	a0,a0,-8
    3952:	40f50733          	sub	a4,a0,a5
    3956:	df4d                	beqz	a4,3910 <_malloc_r+0x76>
    3958:	943a                	add	s0,s0,a4
    395a:	8f89                	sub	a5,a5,a0
    395c:	c01c                	sw	a5,0(s0)
    395e:	bf4d                	j	3910 <_malloc_r+0x76>
    3960:	c35c                	sw	a5,4(a4)
    3962:	b7c5                	j	3942 <_malloc_r+0xa8>
    3964:	8722                	mv	a4,s0
    3966:	4040                	lw	s0,4(s0)
    3968:	b795                	j	38cc <_malloc_r+0x32>
    396a:	00350413          	addi	s0,a0,3
    396e:	9871                	andi	s0,s0,-4
    3970:	fc8500e3          	beq	a0,s0,3930 <_malloc_r+0x96>
    3974:	40a405b3          	sub	a1,s0,a0
    3978:	854a                	mv	a0,s2
    397a:	272d                	jal	40a4 <_sbrk_r>
    397c:	fb351ae3          	bne	a0,s3,3930 <_malloc_r+0x96>
    3980:	bfa5                	j	38f8 <_malloc_r+0x5e>

00003982 <__sfputc_r>:
    3982:	461c                	lw	a5,8(a2)
    3984:	17fd                	addi	a5,a5,-1
    3986:	c61c                	sw	a5,8(a2)
    3988:	0007da63          	bgez	a5,399c <__sfputc_r+0x1a>
    398c:	4e18                	lw	a4,24(a2)
    398e:	00e7c563          	blt	a5,a4,3998 <__sfputc_r+0x16>
    3992:	47a9                	li	a5,10
    3994:	00f59463          	bne	a1,a5,399c <__sfputc_r+0x1a>
    3998:	ffcff06f          	j	3194 <__swbuf_r>
    399c:	421c                	lw	a5,0(a2)
    399e:	852e                	mv	a0,a1
    39a0:	00178713          	addi	a4,a5,1
    39a4:	c218                	sw	a4,0(a2)
    39a6:	a38c                	sb	a1,0(a5)
    39a8:	8082                	ret

000039aa <__sfputs_r>:
    39aa:	1101                	addi	sp,sp,-32
    39ac:	cc22                	sw	s0,24(sp)
    39ae:	ca26                	sw	s1,20(sp)
    39b0:	c84a                	sw	s2,16(sp)
    39b2:	c64e                	sw	s3,12(sp)
    39b4:	c452                	sw	s4,8(sp)
    39b6:	ce06                	sw	ra,28(sp)
    39b8:	892a                	mv	s2,a0
    39ba:	89ae                	mv	s3,a1
    39bc:	8432                	mv	s0,a2
    39be:	00d604b3          	add	s1,a2,a3
    39c2:	5a7d                	li	s4,-1
    39c4:	00941463          	bne	s0,s1,39cc <__sfputs_r+0x22>
    39c8:	4501                	li	a0,0
    39ca:	a801                	j	39da <__sfputs_r+0x30>
    39cc:	200c                	lbu	a1,0(s0)
    39ce:	864e                	mv	a2,s3
    39d0:	854a                	mv	a0,s2
    39d2:	3f45                	jal	3982 <__sfputc_r>
    39d4:	0405                	addi	s0,s0,1
    39d6:	ff4517e3          	bne	a0,s4,39c4 <__sfputs_r+0x1a>
    39da:	40f2                	lw	ra,28(sp)
    39dc:	4462                	lw	s0,24(sp)
    39de:	44d2                	lw	s1,20(sp)
    39e0:	4942                	lw	s2,16(sp)
    39e2:	49b2                	lw	s3,12(sp)
    39e4:	4a22                	lw	s4,8(sp)
    39e6:	6105                	addi	sp,sp,32
    39e8:	8082                	ret

000039ea <_vfiprintf_r>:
    39ea:	7135                	addi	sp,sp,-160
    39ec:	cd22                	sw	s0,152(sp)
    39ee:	cb26                	sw	s1,148(sp)
    39f0:	c94a                	sw	s2,144(sp)
    39f2:	c74e                	sw	s3,140(sp)
    39f4:	cf06                	sw	ra,156(sp)
    39f6:	c552                	sw	s4,136(sp)
    39f8:	c356                	sw	s5,132(sp)
    39fa:	c15a                	sw	s6,128(sp)
    39fc:	dede                	sw	s7,124(sp)
    39fe:	dce2                	sw	s8,120(sp)
    3a00:	dae6                	sw	s9,116(sp)
    3a02:	89aa                	mv	s3,a0
    3a04:	84ae                	mv	s1,a1
    3a06:	8932                	mv	s2,a2
    3a08:	8436                	mv	s0,a3
    3a0a:	c509                	beqz	a0,3a14 <_vfiprintf_r+0x2a>
    3a0c:	4d1c                	lw	a5,24(a0)
    3a0e:	e399                	bnez	a5,3a14 <_vfiprintf_r+0x2a>
    3a10:	b87ff0ef          	jal	ra,3596 <__sinit>
    3a14:	00001797          	auipc	a5,0x1
    3a18:	ae478793          	addi	a5,a5,-1308 # 44f8 <__sf_fake_stdin>
    3a1c:	0cf49863          	bne	s1,a5,3aec <_vfiprintf_r+0x102>
    3a20:	0049a483          	lw	s1,4(s3)
    3a24:	24de                	lhu	a5,12(s1)
    3a26:	8ba1                	andi	a5,a5,8
    3a28:	c7e5                	beqz	a5,3b10 <_vfiprintf_r+0x126>
    3a2a:	489c                	lw	a5,16(s1)
    3a2c:	c3f5                	beqz	a5,3b10 <_vfiprintf_r+0x126>
    3a2e:	02000793          	li	a5,32
    3a32:	02f104a3          	sb	a5,41(sp)
    3a36:	03000793          	li	a5,48
    3a3a:	d202                	sw	zero,36(sp)
    3a3c:	02f10523          	sb	a5,42(sp)
    3a40:	c622                	sw	s0,12(sp)
    3a42:	02500b93          	li	s7,37
    3a46:	00001a97          	auipc	s5,0x1
    3a4a:	af2a8a93          	addi	s5,s5,-1294 # 4538 <__sf_fake_stdout+0x20>
    3a4e:	4c05                	li	s8,1
    3a50:	4b29                	li	s6,10
    3a52:	844a                	mv	s0,s2
    3a54:	201c                	lbu	a5,0(s0)
    3a56:	c399                	beqz	a5,3a5c <_vfiprintf_r+0x72>
    3a58:	0d779f63          	bne	a5,s7,3b36 <_vfiprintf_r+0x14c>
    3a5c:	41240cb3          	sub	s9,s0,s2
    3a60:	000c8d63          	beqz	s9,3a7a <_vfiprintf_r+0x90>
    3a64:	86e6                	mv	a3,s9
    3a66:	864a                	mv	a2,s2
    3a68:	85a6                	mv	a1,s1
    3a6a:	854e                	mv	a0,s3
    3a6c:	3f3d                	jal	39aa <__sfputs_r>
    3a6e:	57fd                	li	a5,-1
    3a70:	1ef50063          	beq	a0,a5,3c50 <_vfiprintf_r+0x266>
    3a74:	5692                	lw	a3,36(sp)
    3a76:	96e6                	add	a3,a3,s9
    3a78:	d236                	sw	a3,36(sp)
    3a7a:	201c                	lbu	a5,0(s0)
    3a7c:	1c078a63          	beqz	a5,3c50 <_vfiprintf_r+0x266>
    3a80:	57fd                	li	a5,-1
    3a82:	00140913          	addi	s2,s0,1
    3a86:	c802                	sw	zero,16(sp)
    3a88:	ce02                	sw	zero,28(sp)
    3a8a:	ca3e                	sw	a5,20(sp)
    3a8c:	cc02                	sw	zero,24(sp)
    3a8e:	040109a3          	sb	zero,83(sp)
    3a92:	d482                	sw	zero,104(sp)
    3a94:	00094583          	lbu	a1,0(s2)
    3a98:	4615                	li	a2,5
    3a9a:	8556                	mv	a0,s5
    3a9c:	7e0000ef          	jal	ra,427c <memchr>
    3aa0:	00190413          	addi	s0,s2,1
    3aa4:	47c2                	lw	a5,16(sp)
    3aa6:	e951                	bnez	a0,3b3a <_vfiprintf_r+0x150>
    3aa8:	0107f713          	andi	a4,a5,16
    3aac:	c709                	beqz	a4,3ab6 <_vfiprintf_r+0xcc>
    3aae:	02000713          	li	a4,32
    3ab2:	04e109a3          	sb	a4,83(sp)
    3ab6:	0087f713          	andi	a4,a5,8
    3aba:	c709                	beqz	a4,3ac4 <_vfiprintf_r+0xda>
    3abc:	02b00713          	li	a4,43
    3ac0:	04e109a3          	sb	a4,83(sp)
    3ac4:	00094683          	lbu	a3,0(s2)
    3ac8:	02a00713          	li	a4,42
    3acc:	06e68f63          	beq	a3,a4,3b4a <_vfiprintf_r+0x160>
    3ad0:	47f2                	lw	a5,28(sp)
    3ad2:	844a                	mv	s0,s2
    3ad4:	4681                	li	a3,0
    3ad6:	4625                	li	a2,9
    3ad8:	2018                	lbu	a4,0(s0)
    3ada:	00140593          	addi	a1,s0,1
    3ade:	fd070713          	addi	a4,a4,-48
    3ae2:	0ae67763          	bgeu	a2,a4,3b90 <_vfiprintf_r+0x1a6>
    3ae6:	cab5                	beqz	a3,3b5a <_vfiprintf_r+0x170>
    3ae8:	ce3e                	sw	a5,28(sp)
    3aea:	a885                	j	3b5a <_vfiprintf_r+0x170>
    3aec:	00001797          	auipc	a5,0x1
    3af0:	a2c78793          	addi	a5,a5,-1492 # 4518 <__sf_fake_stdout>
    3af4:	00f49563          	bne	s1,a5,3afe <_vfiprintf_r+0x114>
    3af8:	0089a483          	lw	s1,8(s3)
    3afc:	b725                	j	3a24 <_vfiprintf_r+0x3a>
    3afe:	00001797          	auipc	a5,0x1
    3b02:	9da78793          	addi	a5,a5,-1574 # 44d8 <__sf_fake_stderr>
    3b06:	f0f49fe3          	bne	s1,a5,3a24 <_vfiprintf_r+0x3a>
    3b0a:	00c9a483          	lw	s1,12(s3)
    3b0e:	bf19                	j	3a24 <_vfiprintf_r+0x3a>
    3b10:	85a6                	mv	a1,s1
    3b12:	854e                	mv	a0,s3
    3b14:	f3cff0ef          	jal	ra,3250 <__swsetup_r>
    3b18:	d919                	beqz	a0,3a2e <_vfiprintf_r+0x44>
    3b1a:	557d                	li	a0,-1
    3b1c:	40fa                	lw	ra,156(sp)
    3b1e:	446a                	lw	s0,152(sp)
    3b20:	44da                	lw	s1,148(sp)
    3b22:	494a                	lw	s2,144(sp)
    3b24:	49ba                	lw	s3,140(sp)
    3b26:	4a2a                	lw	s4,136(sp)
    3b28:	4a9a                	lw	s5,132(sp)
    3b2a:	4b0a                	lw	s6,128(sp)
    3b2c:	5bf6                	lw	s7,124(sp)
    3b2e:	5c66                	lw	s8,120(sp)
    3b30:	5cd6                	lw	s9,116(sp)
    3b32:	610d                	addi	sp,sp,160
    3b34:	8082                	ret
    3b36:	0405                	addi	s0,s0,1
    3b38:	bf31                	j	3a54 <_vfiprintf_r+0x6a>
    3b3a:	41550533          	sub	a0,a0,s5
    3b3e:	00ac1533          	sll	a0,s8,a0
    3b42:	8fc9                	or	a5,a5,a0
    3b44:	c83e                	sw	a5,16(sp)
    3b46:	8922                	mv	s2,s0
    3b48:	b7b1                	j	3a94 <_vfiprintf_r+0xaa>
    3b4a:	4732                	lw	a4,12(sp)
    3b4c:	00470693          	addi	a3,a4,4
    3b50:	4318                	lw	a4,0(a4)
    3b52:	c636                	sw	a3,12(sp)
    3b54:	02074763          	bltz	a4,3b82 <_vfiprintf_r+0x198>
    3b58:	ce3a                	sw	a4,28(sp)
    3b5a:	2018                	lbu	a4,0(s0)
    3b5c:	02e00793          	li	a5,46
    3b60:	04f71d63          	bne	a4,a5,3bba <_vfiprintf_r+0x1d0>
    3b64:	3018                	lbu	a4,1(s0)
    3b66:	02a00793          	li	a5,42
    3b6a:	02f71b63          	bne	a4,a5,3ba0 <_vfiprintf_r+0x1b6>
    3b6e:	47b2                	lw	a5,12(sp)
    3b70:	0409                	addi	s0,s0,2
    3b72:	00478713          	addi	a4,a5,4
    3b76:	439c                	lw	a5,0(a5)
    3b78:	c63a                	sw	a4,12(sp)
    3b7a:	0207c163          	bltz	a5,3b9c <_vfiprintf_r+0x1b2>
    3b7e:	ca3e                	sw	a5,20(sp)
    3b80:	a82d                	j	3bba <_vfiprintf_r+0x1d0>
    3b82:	40e00733          	neg	a4,a4
    3b86:	0027e793          	ori	a5,a5,2
    3b8a:	ce3a                	sw	a4,28(sp)
    3b8c:	c83e                	sw	a5,16(sp)
    3b8e:	b7f1                	j	3b5a <_vfiprintf_r+0x170>
    3b90:	036787b3          	mul	a5,a5,s6
    3b94:	4685                	li	a3,1
    3b96:	842e                	mv	s0,a1
    3b98:	97ba                	add	a5,a5,a4
    3b9a:	bf3d                	j	3ad8 <_vfiprintf_r+0xee>
    3b9c:	57fd                	li	a5,-1
    3b9e:	b7c5                	j	3b7e <_vfiprintf_r+0x194>
    3ba0:	0405                	addi	s0,s0,1
    3ba2:	ca02                	sw	zero,20(sp)
    3ba4:	4681                	li	a3,0
    3ba6:	4781                	li	a5,0
    3ba8:	4625                	li	a2,9
    3baa:	2018                	lbu	a4,0(s0)
    3bac:	00140593          	addi	a1,s0,1
    3bb0:	fd070713          	addi	a4,a4,-48
    3bb4:	06e67463          	bgeu	a2,a4,3c1c <_vfiprintf_r+0x232>
    3bb8:	f2f9                	bnez	a3,3b7e <_vfiprintf_r+0x194>
    3bba:	200c                	lbu	a1,0(s0)
    3bbc:	460d                	li	a2,3
    3bbe:	00001517          	auipc	a0,0x1
    3bc2:	98250513          	addi	a0,a0,-1662 # 4540 <__sf_fake_stdout+0x28>
    3bc6:	2d5d                	jal	427c <memchr>
    3bc8:	cd11                	beqz	a0,3be4 <_vfiprintf_r+0x1fa>
    3bca:	00001797          	auipc	a5,0x1
    3bce:	97678793          	addi	a5,a5,-1674 # 4540 <__sf_fake_stdout+0x28>
    3bd2:	8d1d                	sub	a0,a0,a5
    3bd4:	04000793          	li	a5,64
    3bd8:	00a797b3          	sll	a5,a5,a0
    3bdc:	4542                	lw	a0,16(sp)
    3bde:	0405                	addi	s0,s0,1
    3be0:	8d5d                	or	a0,a0,a5
    3be2:	c82a                	sw	a0,16(sp)
    3be4:	200c                	lbu	a1,0(s0)
    3be6:	4619                	li	a2,6
    3be8:	00001517          	auipc	a0,0x1
    3bec:	95c50513          	addi	a0,a0,-1700 # 4544 <__sf_fake_stdout+0x2c>
    3bf0:	00140913          	addi	s2,s0,1
    3bf4:	02b10423          	sb	a1,40(sp)
    3bf8:	2551                	jal	427c <memchr>
    3bfa:	c135                	beqz	a0,3c5e <_vfiprintf_r+0x274>
    3bfc:	ffffc797          	auipc	a5,0xffffc
    3c00:	40478793          	addi	a5,a5,1028 # 0 <_sinit>
    3c04:	e795                	bnez	a5,3c30 <_vfiprintf_r+0x246>
    3c06:	4742                	lw	a4,16(sp)
    3c08:	47b2                	lw	a5,12(sp)
    3c0a:	10077713          	andi	a4,a4,256
    3c0e:	cf09                	beqz	a4,3c28 <_vfiprintf_r+0x23e>
    3c10:	0791                	addi	a5,a5,4
    3c12:	c63e                	sw	a5,12(sp)
    3c14:	5792                	lw	a5,36(sp)
    3c16:	97d2                	add	a5,a5,s4
    3c18:	d23e                	sw	a5,36(sp)
    3c1a:	bd25                	j	3a52 <_vfiprintf_r+0x68>
    3c1c:	036787b3          	mul	a5,a5,s6
    3c20:	4685                	li	a3,1
    3c22:	842e                	mv	s0,a1
    3c24:	97ba                	add	a5,a5,a4
    3c26:	b751                	j	3baa <_vfiprintf_r+0x1c0>
    3c28:	079d                	addi	a5,a5,7
    3c2a:	9be1                	andi	a5,a5,-8
    3c2c:	07a1                	addi	a5,a5,8
    3c2e:	b7d5                	j	3c12 <_vfiprintf_r+0x228>
    3c30:	0078                	addi	a4,sp,12
    3c32:	00000697          	auipc	a3,0x0
    3c36:	d7868693          	addi	a3,a3,-648 # 39aa <__sfputs_r>
    3c3a:	8626                	mv	a2,s1
    3c3c:	080c                	addi	a1,sp,16
    3c3e:	854e                	mv	a0,s3
    3c40:	00000097          	auipc	ra,0x0
    3c44:	000000e7          	jalr	zero # 0 <_sinit>
    3c48:	57fd                	li	a5,-1
    3c4a:	8a2a                	mv	s4,a0
    3c4c:	fcf514e3          	bne	a0,a5,3c14 <_vfiprintf_r+0x22a>
    3c50:	24de                	lhu	a5,12(s1)
    3c52:	0407f793          	andi	a5,a5,64
    3c56:	ec0792e3          	bnez	a5,3b1a <_vfiprintf_r+0x130>
    3c5a:	5512                	lw	a0,36(sp)
    3c5c:	b5c1                	j	3b1c <_vfiprintf_r+0x132>
    3c5e:	0078                	addi	a4,sp,12
    3c60:	00000697          	auipc	a3,0x0
    3c64:	d4a68693          	addi	a3,a3,-694 # 39aa <__sfputs_r>
    3c68:	8626                	mv	a2,s1
    3c6a:	080c                	addi	a1,sp,16
    3c6c:	854e                	mv	a0,s3
    3c6e:	2a01                	jal	3d7e <_printf_i>
    3c70:	bfe1                	j	3c48 <_vfiprintf_r+0x25e>

00003c72 <_printf_common>:
    3c72:	7179                	addi	sp,sp,-48
    3c74:	ca56                	sw	s5,20(sp)
    3c76:	499c                	lw	a5,16(a1)
    3c78:	8aba                	mv	s5,a4
    3c7a:	4598                	lw	a4,8(a1)
    3c7c:	d422                	sw	s0,40(sp)
    3c7e:	d226                	sw	s1,36(sp)
    3c80:	ce4e                	sw	s3,28(sp)
    3c82:	cc52                	sw	s4,24(sp)
    3c84:	d606                	sw	ra,44(sp)
    3c86:	d04a                	sw	s2,32(sp)
    3c88:	c85a                	sw	s6,16(sp)
    3c8a:	c65e                	sw	s7,12(sp)
    3c8c:	89aa                	mv	s3,a0
    3c8e:	842e                	mv	s0,a1
    3c90:	84b2                	mv	s1,a2
    3c92:	8a36                	mv	s4,a3
    3c94:	00e7d363          	bge	a5,a4,3c9a <_printf_common+0x28>
    3c98:	87ba                	mv	a5,a4
    3c9a:	c09c                	sw	a5,0(s1)
    3c9c:	04344703          	lbu	a4,67(s0)
    3ca0:	c319                	beqz	a4,3ca6 <_printf_common+0x34>
    3ca2:	0785                	addi	a5,a5,1
    3ca4:	c09c                	sw	a5,0(s1)
    3ca6:	401c                	lw	a5,0(s0)
    3ca8:	0207f793          	andi	a5,a5,32
    3cac:	c781                	beqz	a5,3cb4 <_printf_common+0x42>
    3cae:	409c                	lw	a5,0(s1)
    3cb0:	0789                	addi	a5,a5,2
    3cb2:	c09c                	sw	a5,0(s1)
    3cb4:	00042903          	lw	s2,0(s0)
    3cb8:	00697913          	andi	s2,s2,6
    3cbc:	00091a63          	bnez	s2,3cd0 <_printf_common+0x5e>
    3cc0:	01940b13          	addi	s6,s0,25
    3cc4:	5bfd                	li	s7,-1
    3cc6:	445c                	lw	a5,12(s0)
    3cc8:	4098                	lw	a4,0(s1)
    3cca:	8f99                	sub	a5,a5,a4
    3ccc:	04f94c63          	blt	s2,a5,3d24 <_printf_common+0xb2>
    3cd0:	401c                	lw	a5,0(s0)
    3cd2:	04344683          	lbu	a3,67(s0)
    3cd6:	0207f793          	andi	a5,a5,32
    3cda:	00d036b3          	snez	a3,a3
    3cde:	eba5                	bnez	a5,3d4e <_printf_common+0xdc>
    3ce0:	04340613          	addi	a2,s0,67
    3ce4:	85d2                	mv	a1,s4
    3ce6:	854e                	mv	a0,s3
    3ce8:	9a82                	jalr	s5
    3cea:	57fd                	li	a5,-1
    3cec:	04f50363          	beq	a0,a5,3d32 <_printf_common+0xc0>
    3cf0:	401c                	lw	a5,0(s0)
    3cf2:	4611                	li	a2,4
    3cf4:	4098                	lw	a4,0(s1)
    3cf6:	8b99                	andi	a5,a5,6
    3cf8:	4454                	lw	a3,12(s0)
    3cfa:	4481                	li	s1,0
    3cfc:	00c79763          	bne	a5,a2,3d0a <_printf_common+0x98>
    3d00:	40e684b3          	sub	s1,a3,a4
    3d04:	0004d363          	bgez	s1,3d0a <_printf_common+0x98>
    3d08:	4481                	li	s1,0
    3d0a:	441c                	lw	a5,8(s0)
    3d0c:	4818                	lw	a4,16(s0)
    3d0e:	00f75463          	bge	a4,a5,3d16 <_printf_common+0xa4>
    3d12:	8f99                	sub	a5,a5,a4
    3d14:	94be                	add	s1,s1,a5
    3d16:	4901                	li	s2,0
    3d18:	0469                	addi	s0,s0,26
    3d1a:	5b7d                	li	s6,-1
    3d1c:	05249863          	bne	s1,s2,3d6c <_printf_common+0xfa>
    3d20:	4501                	li	a0,0
    3d22:	a809                	j	3d34 <_printf_common+0xc2>
    3d24:	4685                	li	a3,1
    3d26:	865a                	mv	a2,s6
    3d28:	85d2                	mv	a1,s4
    3d2a:	854e                	mv	a0,s3
    3d2c:	9a82                	jalr	s5
    3d2e:	01751e63          	bne	a0,s7,3d4a <_printf_common+0xd8>
    3d32:	557d                	li	a0,-1
    3d34:	50b2                	lw	ra,44(sp)
    3d36:	5422                	lw	s0,40(sp)
    3d38:	5492                	lw	s1,36(sp)
    3d3a:	5902                	lw	s2,32(sp)
    3d3c:	49f2                	lw	s3,28(sp)
    3d3e:	4a62                	lw	s4,24(sp)
    3d40:	4ad2                	lw	s5,20(sp)
    3d42:	4b42                	lw	s6,16(sp)
    3d44:	4bb2                	lw	s7,12(sp)
    3d46:	6145                	addi	sp,sp,48
    3d48:	8082                	ret
    3d4a:	0905                	addi	s2,s2,1
    3d4c:	bfad                	j	3cc6 <_printf_common+0x54>
    3d4e:	00d40733          	add	a4,s0,a3
    3d52:	03000613          	li	a2,48
    3d56:	04c701a3          	sb	a2,67(a4)
    3d5a:	04544703          	lbu	a4,69(s0)
    3d5e:	00168793          	addi	a5,a3,1
    3d62:	97a2                	add	a5,a5,s0
    3d64:	0689                	addi	a3,a3,2
    3d66:	04e781a3          	sb	a4,67(a5)
    3d6a:	bf9d                	j	3ce0 <_printf_common+0x6e>
    3d6c:	4685                	li	a3,1
    3d6e:	8622                	mv	a2,s0
    3d70:	85d2                	mv	a1,s4
    3d72:	854e                	mv	a0,s3
    3d74:	9a82                	jalr	s5
    3d76:	fb650ee3          	beq	a0,s6,3d32 <_printf_common+0xc0>
    3d7a:	0905                	addi	s2,s2,1
    3d7c:	b745                	j	3d1c <_printf_common+0xaa>

00003d7e <_printf_i>:
    3d7e:	7179                	addi	sp,sp,-48
    3d80:	d422                	sw	s0,40(sp)
    3d82:	d226                	sw	s1,36(sp)
    3d84:	d04a                	sw	s2,32(sp)
    3d86:	ce4e                	sw	s3,28(sp)
    3d88:	d606                	sw	ra,44(sp)
    3d8a:	cc52                	sw	s4,24(sp)
    3d8c:	ca56                	sw	s5,20(sp)
    3d8e:	c85a                	sw	s6,16(sp)
    3d90:	89b6                	mv	s3,a3
    3d92:	2d94                	lbu	a3,24(a1)
    3d94:	06900793          	li	a5,105
    3d98:	8932                	mv	s2,a2
    3d9a:	84aa                	mv	s1,a0
    3d9c:	842e                	mv	s0,a1
    3d9e:	04358613          	addi	a2,a1,67
    3da2:	02f68d63          	beq	a3,a5,3ddc <_printf_i+0x5e>
    3da6:	06d7e263          	bltu	a5,a3,3e0a <_printf_i+0x8c>
    3daa:	05800793          	li	a5,88
    3dae:	18f68663          	beq	a3,a5,3f3a <_printf_i+0x1bc>
    3db2:	00d7ed63          	bltu	a5,a3,3dcc <_printf_i+0x4e>
    3db6:	20068e63          	beqz	a3,3fd2 <_printf_i+0x254>
    3dba:	04300793          	li	a5,67
    3dbe:	0af68e63          	beq	a3,a5,3e7a <_printf_i+0xfc>
    3dc2:	04240a93          	addi	s5,s0,66
    3dc6:	04d40123          	sb	a3,66(s0)
    3dca:	a0c9                	j	3e8c <_printf_i+0x10e>
    3dcc:	06300793          	li	a5,99
    3dd0:	0af68563          	beq	a3,a5,3e7a <_printf_i+0xfc>
    3dd4:	06400793          	li	a5,100
    3dd8:	fef695e3          	bne	a3,a5,3dc2 <_printf_i+0x44>
    3ddc:	401c                	lw	a5,0(s0)
    3dde:	4308                	lw	a0,0(a4)
    3de0:	0807f693          	andi	a3,a5,128
    3de4:	00450593          	addi	a1,a0,4
    3de8:	c6c5                	beqz	a3,3e90 <_printf_i+0x112>
    3dea:	411c                	lw	a5,0(a0)
    3dec:	c30c                	sw	a1,0(a4)
    3dee:	0007d863          	bgez	a5,3dfe <_printf_i+0x80>
    3df2:	02d00713          	li	a4,45
    3df6:	40f007b3          	neg	a5,a5
    3dfa:	04e401a3          	sb	a4,67(s0)
    3dfe:	00000697          	auipc	a3,0x0
    3e02:	74e68693          	addi	a3,a3,1870 # 454c <__sf_fake_stdout+0x34>
    3e06:	4729                	li	a4,10
    3e08:	a865                	j	3ec0 <_printf_i+0x142>
    3e0a:	07000793          	li	a5,112
    3e0e:	16f68263          	beq	a3,a5,3f72 <_printf_i+0x1f4>
    3e12:	02d7e563          	bltu	a5,a3,3e3c <_printf_i+0xbe>
    3e16:	06e00793          	li	a5,110
    3e1a:	18f68963          	beq	a3,a5,3fac <_printf_i+0x22e>
    3e1e:	06f00793          	li	a5,111
    3e22:	faf690e3          	bne	a3,a5,3dc2 <_printf_i+0x44>
    3e26:	400c                	lw	a1,0(s0)
    3e28:	431c                	lw	a5,0(a4)
    3e2a:	0805f813          	andi	a6,a1,128
    3e2e:	00478513          	addi	a0,a5,4
    3e32:	06080763          	beqz	a6,3ea0 <_printf_i+0x122>
    3e36:	c308                	sw	a0,0(a4)
    3e38:	439c                	lw	a5,0(a5)
    3e3a:	a885                	j	3eaa <_printf_i+0x12c>
    3e3c:	07500793          	li	a5,117
    3e40:	fef683e3          	beq	a3,a5,3e26 <_printf_i+0xa8>
    3e44:	07800793          	li	a5,120
    3e48:	12f68963          	beq	a3,a5,3f7a <_printf_i+0x1fc>
    3e4c:	07300793          	li	a5,115
    3e50:	f6f699e3          	bne	a3,a5,3dc2 <_printf_i+0x44>
    3e54:	431c                	lw	a5,0(a4)
    3e56:	41d0                	lw	a2,4(a1)
    3e58:	4581                	li	a1,0
    3e5a:	00478693          	addi	a3,a5,4
    3e5e:	c314                	sw	a3,0(a4)
    3e60:	0007aa83          	lw	s5,0(a5)
    3e64:	8556                	mv	a0,s5
    3e66:	2919                	jal	427c <memchr>
    3e68:	c501                	beqz	a0,3e70 <_printf_i+0xf2>
    3e6a:	41550533          	sub	a0,a0,s5
    3e6e:	c048                	sw	a0,4(s0)
    3e70:	405c                	lw	a5,4(s0)
    3e72:	c81c                	sw	a5,16(s0)
    3e74:	040401a3          	sb	zero,67(s0)
    3e78:	a861                	j	3f10 <_printf_i+0x192>
    3e7a:	431c                	lw	a5,0(a4)
    3e7c:	04240a93          	addi	s5,s0,66
    3e80:	00478693          	addi	a3,a5,4
    3e84:	439c                	lw	a5,0(a5)
    3e86:	c314                	sw	a3,0(a4)
    3e88:	04f40123          	sb	a5,66(s0)
    3e8c:	4785                	li	a5,1
    3e8e:	b7d5                	j	3e72 <_printf_i+0xf4>
    3e90:	0407f693          	andi	a3,a5,64
    3e94:	411c                	lw	a5,0(a0)
    3e96:	c30c                	sw	a1,0(a4)
    3e98:	dab9                	beqz	a3,3dee <_printf_i+0x70>
    3e9a:	07c2                	slli	a5,a5,0x10
    3e9c:	87c1                	srai	a5,a5,0x10
    3e9e:	bf81                	j	3dee <_printf_i+0x70>
    3ea0:	0405f593          	andi	a1,a1,64
    3ea4:	c308                	sw	a0,0(a4)
    3ea6:	d9c9                	beqz	a1,3e38 <_printf_i+0xba>
    3ea8:	239e                	lhu	a5,0(a5)
    3eaa:	06f00713          	li	a4,111
    3eae:	0ee68763          	beq	a3,a4,3f9c <_printf_i+0x21e>
    3eb2:	00000697          	auipc	a3,0x0
    3eb6:	69a68693          	addi	a3,a3,1690 # 454c <__sf_fake_stdout+0x34>
    3eba:	4729                	li	a4,10
    3ebc:	040401a3          	sb	zero,67(s0)
    3ec0:	404c                	lw	a1,4(s0)
    3ec2:	c40c                	sw	a1,8(s0)
    3ec4:	0005c563          	bltz	a1,3ece <_printf_i+0x150>
    3ec8:	4008                	lw	a0,0(s0)
    3eca:	996d                	andi	a0,a0,-5
    3ecc:	c008                	sw	a0,0(s0)
    3ece:	e399                	bnez	a5,3ed4 <_printf_i+0x156>
    3ed0:	8ab2                	mv	s5,a2
    3ed2:	cd89                	beqz	a1,3eec <_printf_i+0x16e>
    3ed4:	8ab2                	mv	s5,a2
    3ed6:	02e7f5b3          	remu	a1,a5,a4
    3eda:	1afd                	addi	s5,s5,-1
    3edc:	95b6                	add	a1,a1,a3
    3ede:	218c                	lbu	a1,0(a1)
    3ee0:	00ba8023          	sb	a1,0(s5)
    3ee4:	02e7d5b3          	divu	a1,a5,a4
    3ee8:	0ce7f063          	bgeu	a5,a4,3fa8 <_printf_i+0x22a>
    3eec:	47a1                	li	a5,8
    3eee:	00f71e63          	bne	a4,a5,3f0a <_printf_i+0x18c>
    3ef2:	401c                	lw	a5,0(s0)
    3ef4:	8b85                	andi	a5,a5,1
    3ef6:	cb91                	beqz	a5,3f0a <_printf_i+0x18c>
    3ef8:	4058                	lw	a4,4(s0)
    3efa:	481c                	lw	a5,16(s0)
    3efc:	00e7c763          	blt	a5,a4,3f0a <_printf_i+0x18c>
    3f00:	03000793          	li	a5,48
    3f04:	fefa8fa3          	sb	a5,-1(s5)
    3f08:	1afd                	addi	s5,s5,-1
    3f0a:	41560633          	sub	a2,a2,s5
    3f0e:	c810                	sw	a2,16(s0)
    3f10:	874e                	mv	a4,s3
    3f12:	86ca                	mv	a3,s2
    3f14:	0070                	addi	a2,sp,12
    3f16:	85a2                	mv	a1,s0
    3f18:	8526                	mv	a0,s1
    3f1a:	d59ff0ef          	jal	ra,3c72 <_printf_common>
    3f1e:	5a7d                	li	s4,-1
    3f20:	0b451d63          	bne	a0,s4,3fda <_printf_i+0x25c>
    3f24:	557d                	li	a0,-1
    3f26:	50b2                	lw	ra,44(sp)
    3f28:	5422                	lw	s0,40(sp)
    3f2a:	5492                	lw	s1,36(sp)
    3f2c:	5902                	lw	s2,32(sp)
    3f2e:	49f2                	lw	s3,28(sp)
    3f30:	4a62                	lw	s4,24(sp)
    3f32:	4ad2                	lw	s5,20(sp)
    3f34:	4b42                	lw	s6,16(sp)
    3f36:	6145                	addi	sp,sp,48
    3f38:	8082                	ret
    3f3a:	04d582a3          	sb	a3,69(a1)
    3f3e:	00000697          	auipc	a3,0x0
    3f42:	60e68693          	addi	a3,a3,1550 # 454c <__sf_fake_stdout+0x34>
    3f46:	400c                	lw	a1,0(s0)
    3f48:	4308                	lw	a0,0(a4)
    3f4a:	0805f813          	andi	a6,a1,128
    3f4e:	411c                	lw	a5,0(a0)
    3f50:	0511                	addi	a0,a0,4
    3f52:	02080d63          	beqz	a6,3f8c <_printf_i+0x20e>
    3f56:	c308                	sw	a0,0(a4)
    3f58:	0015f713          	andi	a4,a1,1
    3f5c:	c701                	beqz	a4,3f64 <_printf_i+0x1e6>
    3f5e:	0205e593          	ori	a1,a1,32
    3f62:	c00c                	sw	a1,0(s0)
    3f64:	4741                	li	a4,16
    3f66:	fbb9                	bnez	a5,3ebc <_printf_i+0x13e>
    3f68:	400c                	lw	a1,0(s0)
    3f6a:	fdf5f593          	andi	a1,a1,-33
    3f6e:	c00c                	sw	a1,0(s0)
    3f70:	b7b1                	j	3ebc <_printf_i+0x13e>
    3f72:	419c                	lw	a5,0(a1)
    3f74:	0207e793          	ori	a5,a5,32
    3f78:	c19c                	sw	a5,0(a1)
    3f7a:	07800793          	li	a5,120
    3f7e:	04f402a3          	sb	a5,69(s0)
    3f82:	00000697          	auipc	a3,0x0
    3f86:	5de68693          	addi	a3,a3,1502 # 4560 <__sf_fake_stdout+0x48>
    3f8a:	bf75                	j	3f46 <_printf_i+0x1c8>
    3f8c:	0405f813          	andi	a6,a1,64
    3f90:	c308                	sw	a0,0(a4)
    3f92:	fc0803e3          	beqz	a6,3f58 <_printf_i+0x1da>
    3f96:	07c2                	slli	a5,a5,0x10
    3f98:	83c1                	srli	a5,a5,0x10
    3f9a:	bf7d                	j	3f58 <_printf_i+0x1da>
    3f9c:	00000697          	auipc	a3,0x0
    3fa0:	5b068693          	addi	a3,a3,1456 # 454c <__sf_fake_stdout+0x34>
    3fa4:	4721                	li	a4,8
    3fa6:	bf19                	j	3ebc <_printf_i+0x13e>
    3fa8:	87ae                	mv	a5,a1
    3faa:	b735                	j	3ed6 <_printf_i+0x158>
    3fac:	4194                	lw	a3,0(a1)
    3fae:	431c                	lw	a5,0(a4)
    3fb0:	49cc                	lw	a1,20(a1)
    3fb2:	0806f813          	andi	a6,a3,128
    3fb6:	00478513          	addi	a0,a5,4
    3fba:	00080663          	beqz	a6,3fc6 <_printf_i+0x248>
    3fbe:	c308                	sw	a0,0(a4)
    3fc0:	439c                	lw	a5,0(a5)
    3fc2:	c38c                	sw	a1,0(a5)
    3fc4:	a039                	j	3fd2 <_printf_i+0x254>
    3fc6:	c308                	sw	a0,0(a4)
    3fc8:	0406f693          	andi	a3,a3,64
    3fcc:	439c                	lw	a5,0(a5)
    3fce:	daf5                	beqz	a3,3fc2 <_printf_i+0x244>
    3fd0:	a38e                	sh	a1,0(a5)
    3fd2:	00042823          	sw	zero,16(s0)
    3fd6:	8ab2                	mv	s5,a2
    3fd8:	bf25                	j	3f10 <_printf_i+0x192>
    3fda:	4814                	lw	a3,16(s0)
    3fdc:	8656                	mv	a2,s5
    3fde:	85ca                	mv	a1,s2
    3fe0:	8526                	mv	a0,s1
    3fe2:	9982                	jalr	s3
    3fe4:	f54500e3          	beq	a0,s4,3f24 <_printf_i+0x1a6>
    3fe8:	401c                	lw	a5,0(s0)
    3fea:	8b89                	andi	a5,a5,2
    3fec:	e78d                	bnez	a5,4016 <_printf_i+0x298>
    3fee:	47b2                	lw	a5,12(sp)
    3ff0:	4448                	lw	a0,12(s0)
    3ff2:	f2f55ae3          	bge	a0,a5,3f26 <_printf_i+0x1a8>
    3ff6:	853e                	mv	a0,a5
    3ff8:	b73d                	j	3f26 <_printf_i+0x1a8>
    3ffa:	4685                	li	a3,1
    3ffc:	8656                	mv	a2,s5
    3ffe:	85ca                	mv	a1,s2
    4000:	8526                	mv	a0,s1
    4002:	9982                	jalr	s3
    4004:	f36500e3          	beq	a0,s6,3f24 <_printf_i+0x1a6>
    4008:	0a05                	addi	s4,s4,1
    400a:	445c                	lw	a5,12(s0)
    400c:	4732                	lw	a4,12(sp)
    400e:	8f99                	sub	a5,a5,a4
    4010:	fefa45e3          	blt	s4,a5,3ffa <_printf_i+0x27c>
    4014:	bfe9                	j	3fee <_printf_i+0x270>
    4016:	4a01                	li	s4,0
    4018:	01940a93          	addi	s5,s0,25
    401c:	5b7d                	li	s6,-1
    401e:	b7f5                	j	400a <_printf_i+0x28c>

00004020 <_putc_r>:
    4020:	1101                	addi	sp,sp,-32
    4022:	cc22                	sw	s0,24(sp)
    4024:	ce06                	sw	ra,28(sp)
    4026:	842a                	mv	s0,a0
    4028:	c909                	beqz	a0,403a <_putc_r+0x1a>
    402a:	4d1c                	lw	a5,24(a0)
    402c:	e799                	bnez	a5,403a <_putc_r+0x1a>
    402e:	c632                	sw	a2,12(sp)
    4030:	c42e                	sw	a1,8(sp)
    4032:	d64ff0ef          	jal	ra,3596 <__sinit>
    4036:	4632                	lw	a2,12(sp)
    4038:	45a2                	lw	a1,8(sp)
    403a:	00000797          	auipc	a5,0x0
    403e:	4be78793          	addi	a5,a5,1214 # 44f8 <__sf_fake_stdin>
    4042:	02f61663          	bne	a2,a5,406e <_putc_r+0x4e>
    4046:	4050                	lw	a2,4(s0)
    4048:	461c                	lw	a5,8(a2)
    404a:	17fd                	addi	a5,a5,-1
    404c:	c61c                	sw	a5,8(a2)
    404e:	0407d063          	bgez	a5,408e <_putc_r+0x6e>
    4052:	4e18                	lw	a4,24(a2)
    4054:	00e7c763          	blt	a5,a4,4062 <_putc_r+0x42>
    4058:	0ff5f793          	andi	a5,a1,255
    405c:	4729                	li	a4,10
    405e:	02e79863          	bne	a5,a4,408e <_putc_r+0x6e>
    4062:	8522                	mv	a0,s0
    4064:	4462                	lw	s0,24(sp)
    4066:	40f2                	lw	ra,28(sp)
    4068:	6105                	addi	sp,sp,32
    406a:	92aff06f          	j	3194 <__swbuf_r>
    406e:	00000797          	auipc	a5,0x0
    4072:	4aa78793          	addi	a5,a5,1194 # 4518 <__sf_fake_stdout>
    4076:	00f61463          	bne	a2,a5,407e <_putc_r+0x5e>
    407a:	4410                	lw	a2,8(s0)
    407c:	b7f1                	j	4048 <_putc_r+0x28>
    407e:	00000797          	auipc	a5,0x0
    4082:	45a78793          	addi	a5,a5,1114 # 44d8 <__sf_fake_stderr>
    4086:	fcf611e3          	bne	a2,a5,4048 <_putc_r+0x28>
    408a:	4450                	lw	a2,12(s0)
    408c:	bf75                	j	4048 <_putc_r+0x28>
    408e:	421c                	lw	a5,0(a2)
    4090:	0ff5f513          	andi	a0,a1,255
    4094:	00178713          	addi	a4,a5,1
    4098:	c218                	sw	a4,0(a2)
    409a:	a38c                	sb	a1,0(a5)
    409c:	40f2                	lw	ra,28(sp)
    409e:	4462                	lw	s0,24(sp)
    40a0:	6105                	addi	sp,sp,32
    40a2:	8082                	ret

000040a4 <_sbrk_r>:
    40a4:	1141                	addi	sp,sp,-16
    40a6:	c422                	sw	s0,8(sp)
    40a8:	842a                	mv	s0,a0
    40aa:	852e                	mv	a0,a1
    40ac:	1ffff797          	auipc	a5,0x1ffff
    40b0:	7807a023          	sw	zero,1920(a5) # 2000382c <errno>
    40b4:	c606                	sw	ra,12(sp)
    40b6:	ebbfe0ef          	jal	ra,2f70 <_sbrk>
    40ba:	57fd                	li	a5,-1
    40bc:	00f51963          	bne	a0,a5,40ce <_sbrk_r+0x2a>
    40c0:	1ffff797          	auipc	a5,0x1ffff
    40c4:	76c78793          	addi	a5,a5,1900 # 2000382c <errno>
    40c8:	439c                	lw	a5,0(a5)
    40ca:	c391                	beqz	a5,40ce <_sbrk_r+0x2a>
    40cc:	c01c                	sw	a5,0(s0)
    40ce:	40b2                	lw	ra,12(sp)
    40d0:	4422                	lw	s0,8(sp)
    40d2:	0141                	addi	sp,sp,16
    40d4:	8082                	ret

000040d6 <__sread>:
    40d6:	1141                	addi	sp,sp,-16
    40d8:	c422                	sw	s0,8(sp)
    40da:	842e                	mv	s0,a1
    40dc:	00e59583          	lh	a1,14(a1)
    40e0:	c606                	sw	ra,12(sp)
    40e2:	2a5d                	jal	4298 <_read_r>
    40e4:	00054963          	bltz	a0,40f6 <__sread+0x20>
    40e8:	487c                	lw	a5,84(s0)
    40ea:	97aa                	add	a5,a5,a0
    40ec:	c87c                	sw	a5,84(s0)
    40ee:	40b2                	lw	ra,12(sp)
    40f0:	4422                	lw	s0,8(sp)
    40f2:	0141                	addi	sp,sp,16
    40f4:	8082                	ret
    40f6:	245e                	lhu	a5,12(s0)
    40f8:	777d                	lui	a4,0xfffff
    40fa:	177d                	addi	a4,a4,-1
    40fc:	8ff9                	and	a5,a5,a4
    40fe:	a45e                	sh	a5,12(s0)
    4100:	b7fd                	j	40ee <__sread+0x18>

00004102 <__swrite>:
    4102:	25de                	lhu	a5,12(a1)
    4104:	1101                	addi	sp,sp,-32
    4106:	cc22                	sw	s0,24(sp)
    4108:	ca26                	sw	s1,20(sp)
    410a:	c84a                	sw	s2,16(sp)
    410c:	c64e                	sw	s3,12(sp)
    410e:	ce06                	sw	ra,28(sp)
    4110:	1007f793          	andi	a5,a5,256
    4114:	84aa                	mv	s1,a0
    4116:	842e                	mv	s0,a1
    4118:	8932                	mv	s2,a2
    411a:	89b6                	mv	s3,a3
    411c:	c791                	beqz	a5,4128 <__swrite+0x26>
    411e:	00e59583          	lh	a1,14(a1)
    4122:	4689                	li	a3,2
    4124:	4601                	li	a2,0
    4126:	220d                	jal	4248 <_lseek_r>
    4128:	245e                	lhu	a5,12(s0)
    412a:	777d                	lui	a4,0xfffff
    412c:	177d                	addi	a4,a4,-1
    412e:	8ff9                	and	a5,a5,a4
    4130:	a45e                	sh	a5,12(s0)
    4132:	00e41583          	lh	a1,14(s0)
    4136:	4462                	lw	s0,24(sp)
    4138:	40f2                	lw	ra,28(sp)
    413a:	86ce                	mv	a3,s3
    413c:	864a                	mv	a2,s2
    413e:	49b2                	lw	s3,12(sp)
    4140:	4942                	lw	s2,16(sp)
    4142:	8526                	mv	a0,s1
    4144:	44d2                	lw	s1,20(sp)
    4146:	6105                	addi	sp,sp,32
    4148:	a825                	j	4180 <_write_r>

0000414a <__sseek>:
    414a:	1141                	addi	sp,sp,-16
    414c:	c422                	sw	s0,8(sp)
    414e:	842e                	mv	s0,a1
    4150:	00e59583          	lh	a1,14(a1)
    4154:	c606                	sw	ra,12(sp)
    4156:	28cd                	jal	4248 <_lseek_r>
    4158:	57fd                	li	a5,-1
    415a:	245a                	lhu	a4,12(s0)
    415c:	00f51a63          	bne	a0,a5,4170 <__sseek+0x26>
    4160:	77fd                	lui	a5,0xfffff
    4162:	17fd                	addi	a5,a5,-1
    4164:	8ff9                	and	a5,a5,a4
    4166:	a45e                	sh	a5,12(s0)
    4168:	40b2                	lw	ra,12(sp)
    416a:	4422                	lw	s0,8(sp)
    416c:	0141                	addi	sp,sp,16
    416e:	8082                	ret
    4170:	6785                	lui	a5,0x1
    4172:	8fd9                	or	a5,a5,a4
    4174:	a45e                	sh	a5,12(s0)
    4176:	c868                	sw	a0,84(s0)
    4178:	bfc5                	j	4168 <__sseek+0x1e>

0000417a <__sclose>:
    417a:	00e59583          	lh	a1,14(a1)
    417e:	a825                	j	41b6 <_close_r>

00004180 <_write_r>:
    4180:	1141                	addi	sp,sp,-16
    4182:	c422                	sw	s0,8(sp)
    4184:	842a                	mv	s0,a0
    4186:	852e                	mv	a0,a1
    4188:	85b2                	mv	a1,a2
    418a:	8636                	mv	a2,a3
    418c:	1ffff797          	auipc	a5,0x1ffff
    4190:	6a07a023          	sw	zero,1696(a5) # 2000382c <errno>
    4194:	c606                	sw	ra,12(sp)
    4196:	d9dfe0ef          	jal	ra,2f32 <_write>
    419a:	57fd                	li	a5,-1
    419c:	00f51963          	bne	a0,a5,41ae <_write_r+0x2e>
    41a0:	1ffff797          	auipc	a5,0x1ffff
    41a4:	68c78793          	addi	a5,a5,1676 # 2000382c <errno>
    41a8:	439c                	lw	a5,0(a5)
    41aa:	c391                	beqz	a5,41ae <_write_r+0x2e>
    41ac:	c01c                	sw	a5,0(s0)
    41ae:	40b2                	lw	ra,12(sp)
    41b0:	4422                	lw	s0,8(sp)
    41b2:	0141                	addi	sp,sp,16
    41b4:	8082                	ret

000041b6 <_close_r>:
    41b6:	1141                	addi	sp,sp,-16
    41b8:	c422                	sw	s0,8(sp)
    41ba:	842a                	mv	s0,a0
    41bc:	852e                	mv	a0,a1
    41be:	1ffff797          	auipc	a5,0x1ffff
    41c2:	6607a723          	sw	zero,1646(a5) # 2000382c <errno>
    41c6:	c606                	sw	ra,12(sp)
    41c8:	2211                	jal	42cc <_close>
    41ca:	57fd                	li	a5,-1
    41cc:	00f51963          	bne	a0,a5,41de <_close_r+0x28>
    41d0:	1ffff797          	auipc	a5,0x1ffff
    41d4:	65c78793          	addi	a5,a5,1628 # 2000382c <errno>
    41d8:	439c                	lw	a5,0(a5)
    41da:	c391                	beqz	a5,41de <_close_r+0x28>
    41dc:	c01c                	sw	a5,0(s0)
    41de:	40b2                	lw	ra,12(sp)
    41e0:	4422                	lw	s0,8(sp)
    41e2:	0141                	addi	sp,sp,16
    41e4:	8082                	ret

000041e6 <_fstat_r>:
    41e6:	1141                	addi	sp,sp,-16
    41e8:	c422                	sw	s0,8(sp)
    41ea:	842a                	mv	s0,a0
    41ec:	852e                	mv	a0,a1
    41ee:	85b2                	mv	a1,a2
    41f0:	1ffff797          	auipc	a5,0x1ffff
    41f4:	6207ae23          	sw	zero,1596(a5) # 2000382c <errno>
    41f8:	c606                	sw	ra,12(sp)
    41fa:	20cd                	jal	42dc <_fstat>
    41fc:	57fd                	li	a5,-1
    41fe:	00f51963          	bne	a0,a5,4210 <_fstat_r+0x2a>
    4202:	1ffff797          	auipc	a5,0x1ffff
    4206:	62a78793          	addi	a5,a5,1578 # 2000382c <errno>
    420a:	439c                	lw	a5,0(a5)
    420c:	c391                	beqz	a5,4210 <_fstat_r+0x2a>
    420e:	c01c                	sw	a5,0(s0)
    4210:	40b2                	lw	ra,12(sp)
    4212:	4422                	lw	s0,8(sp)
    4214:	0141                	addi	sp,sp,16
    4216:	8082                	ret

00004218 <_isatty_r>:
    4218:	1141                	addi	sp,sp,-16
    421a:	c422                	sw	s0,8(sp)
    421c:	842a                	mv	s0,a0
    421e:	852e                	mv	a0,a1
    4220:	1ffff797          	auipc	a5,0x1ffff
    4224:	6007a623          	sw	zero,1548(a5) # 2000382c <errno>
    4228:	c606                	sw	ra,12(sp)
    422a:	20c9                	jal	42ec <_isatty>
    422c:	57fd                	li	a5,-1
    422e:	00f51963          	bne	a0,a5,4240 <_isatty_r+0x28>
    4232:	1ffff797          	auipc	a5,0x1ffff
    4236:	5fa78793          	addi	a5,a5,1530 # 2000382c <errno>
    423a:	439c                	lw	a5,0(a5)
    423c:	c391                	beqz	a5,4240 <_isatty_r+0x28>
    423e:	c01c                	sw	a5,0(s0)
    4240:	40b2                	lw	ra,12(sp)
    4242:	4422                	lw	s0,8(sp)
    4244:	0141                	addi	sp,sp,16
    4246:	8082                	ret

00004248 <_lseek_r>:
    4248:	1141                	addi	sp,sp,-16
    424a:	c422                	sw	s0,8(sp)
    424c:	842a                	mv	s0,a0
    424e:	852e                	mv	a0,a1
    4250:	85b2                	mv	a1,a2
    4252:	8636                	mv	a2,a3
    4254:	1ffff797          	auipc	a5,0x1ffff
    4258:	5c07ac23          	sw	zero,1496(a5) # 2000382c <errno>
    425c:	c606                	sw	ra,12(sp)
    425e:	2879                	jal	42fc <_lseek>
    4260:	57fd                	li	a5,-1
    4262:	00f51963          	bne	a0,a5,4274 <_lseek_r+0x2c>
    4266:	1ffff797          	auipc	a5,0x1ffff
    426a:	5c678793          	addi	a5,a5,1478 # 2000382c <errno>
    426e:	439c                	lw	a5,0(a5)
    4270:	c391                	beqz	a5,4274 <_lseek_r+0x2c>
    4272:	c01c                	sw	a5,0(s0)
    4274:	40b2                	lw	ra,12(sp)
    4276:	4422                	lw	s0,8(sp)
    4278:	0141                	addi	sp,sp,16
    427a:	8082                	ret

0000427c <memchr>:
    427c:	0ff5f593          	andi	a1,a1,255
    4280:	962a                	add	a2,a2,a0
    4282:	00c51463          	bne	a0,a2,428a <memchr+0xe>
    4286:	4501                	li	a0,0
    4288:	8082                	ret
    428a:	211c                	lbu	a5,0(a0)
    428c:	feb78ee3          	beq	a5,a1,4288 <memchr+0xc>
    4290:	0505                	addi	a0,a0,1
    4292:	bfc5                	j	4282 <memchr+0x6>

00004294 <__malloc_lock>:
    4294:	8082                	ret

00004296 <__malloc_unlock>:
    4296:	8082                	ret

00004298 <_read_r>:
    4298:	1141                	addi	sp,sp,-16
    429a:	c422                	sw	s0,8(sp)
    429c:	842a                	mv	s0,a0
    429e:	852e                	mv	a0,a1
    42a0:	85b2                	mv	a1,a2
    42a2:	8636                	mv	a2,a3
    42a4:	1ffff797          	auipc	a5,0x1ffff
    42a8:	5807a423          	sw	zero,1416(a5) # 2000382c <errno>
    42ac:	c606                	sw	ra,12(sp)
    42ae:	28b9                	jal	430c <_read>
    42b0:	57fd                	li	a5,-1
    42b2:	00f51963          	bne	a0,a5,42c4 <_read_r+0x2c>
    42b6:	1ffff797          	auipc	a5,0x1ffff
    42ba:	57678793          	addi	a5,a5,1398 # 2000382c <errno>
    42be:	439c                	lw	a5,0(a5)
    42c0:	c391                	beqz	a5,42c4 <_read_r+0x2c>
    42c2:	c01c                	sw	a5,0(s0)
    42c4:	40b2                	lw	ra,12(sp)
    42c6:	4422                	lw	s0,8(sp)
    42c8:	0141                	addi	sp,sp,16
    42ca:	8082                	ret

000042cc <_close>:
    42cc:	05800793          	li	a5,88
    42d0:	1ffff717          	auipc	a4,0x1ffff
    42d4:	54f72e23          	sw	a5,1372(a4) # 2000382c <errno>
    42d8:	557d                	li	a0,-1
    42da:	8082                	ret

000042dc <_fstat>:
    42dc:	05800793          	li	a5,88
    42e0:	1ffff717          	auipc	a4,0x1ffff
    42e4:	54f72623          	sw	a5,1356(a4) # 2000382c <errno>
    42e8:	557d                	li	a0,-1
    42ea:	8082                	ret

000042ec <_isatty>:
    42ec:	05800793          	li	a5,88
    42f0:	1ffff717          	auipc	a4,0x1ffff
    42f4:	52f72e23          	sw	a5,1340(a4) # 2000382c <errno>
    42f8:	4501                	li	a0,0
    42fa:	8082                	ret

000042fc <_lseek>:
    42fc:	05800793          	li	a5,88
    4300:	1ffff717          	auipc	a4,0x1ffff
    4304:	52f72623          	sw	a5,1324(a4) # 2000382c <errno>
    4308:	557d                	li	a0,-1
    430a:	8082                	ret

0000430c <_read>:
    430c:	05800793          	li	a5,88
    4310:	1ffff717          	auipc	a4,0x1ffff
    4314:	50f72e23          	sw	a5,1308(a4) # 2000382c <errno>
    4318:	557d                	li	a0,-1
    431a:	8082                	ret
    431c:	7854                	flw	fa3,52(s0)
    431e:	4d20                	lw	s0,88(a0)
    4320:	0d65646f          	jal	s0,5a3f6 <_data_lma+0x55e82>
    4324:	0000                	unimp
    4326:	0000                	unimp
    4328:	646e6553          	0x646e6553
    432c:	4620                	lw	s0,72(a2)
    432e:	6961                	lui	s2,0x18
    4330:	656c                	flw	fa1,76(a0)
    4332:	0d64                	addi	s1,sp,668
    4334:	0000                	unimp
    4336:	0000                	unimp
    4338:	646e6553          	0x646e6553
    433c:	5320                	lw	s0,96(a4)
    433e:	6375                	lui	t1,0x1d
    4340:	73736563          	bltu	t1,s7,4a6a <_data_lma+0x4f6>
    4344:	000d                	c.nop	3
    4346:	0000                	unimp
    4348:	646e6553          	0x646e6553
    434c:	4420                	lw	s0,72(s0)
    434e:	7461                	lui	s0,0xffff8
    4350:	3a61                	jal	3ce8 <_printf_common+0x76>
    4352:	000d                	c.nop	3
    4354:	3025                	jal	3b7c <_vfiprintf_r+0x192>
    4356:	7832                	flw	fa6,44(sp)
    4358:	0a0d                	addi	s4,s4,3
    435a:	0000                	unimp
    435c:	6572                	flw	fa0,28(sp)
    435e:	25207663          	bgeu	zero,s2,45aa <_data_lma+0x36>
    4362:	2064                	lbu	s1,6(s0)
    4364:	3e3e                	lhu	a5,58(a2)
    4366:	0a3e                	slli	s4,s4,0xf
    4368:	0000                	unimp
    436a:	0000                	unimp
    436c:	3c0a                	lhu	a0,56(s0)
    436e:	3c3c                	lbu	a5,27(s0)
    4370:	0000                	unimp
    4372:	0000                	unimp
    4374:	74737953          	0x74737953
    4378:	6d65                	lui	s10,0x19
    437a:	3a6b6c43          	fmadd.d	fs8,fs6,ft6,ft7,unknown
    437e:	6425                	lui	s0,0x9
    4380:	0a0d                	addi	s4,s4,3
    4382:	0000                	unimp
    4384:	70696843          	fmadd.s	fa6,fs2,ft6,fa4,unknown
    4388:	4449                	li	s0,18
    438a:	253a                	lhu	a4,10(a0)
    438c:	3830                	lbu	a2,19(s0)
    438e:	0d78                	addi	a4,sp,668
    4390:	000a                	c.slli	zero,0x2
    4392:	0000                	unimp
    4394:	5355                	li	t1,-11
    4396:	5241                	li	tp,-16
    4398:	2054                	lbu	a3,4(s0)
    439a:	6449                	lui	s0,0x12
    439c:	656c                	flw	fa1,76(a0)
    439e:	5220                	lw	s0,96(a2)
    43a0:	6365                	lui	t1,0x19
    43a2:	0d76                	slli	s10,s10,0x1d
    43a4:	0000                	unimp
    43a6:	0000                	unimp
    43a8:	3156                	lhu	a3,36(a0)
    43aa:	2e30                	lbu	a2,26(a2)
    43ac:	2e34                	lbu	a3,26(a2)
    43ae:	0036                	c.slli	zero,0xd
    43b0:	7246                	flw	ft4,112(sp)
    43b2:	6565                	lui	a0,0x19
    43b4:	5452                	lw	s0,52(sp)
    43b6:	4b20534f          	fnmadd.d	ft6,ft0,fs2,fs1,unknown
    43ba:	7265                	lui	tp,0xffff9
    43bc:	656e                	flw	fa0,216(sp)
    43be:	206c                	lbu	a1,6(s0)
    43c0:	6556                	flw	fa0,84(sp)
    43c2:	7372                	flw	ft6,60(sp)
    43c4:	6f69                	lui	t5,0x1a
    43c6:	3a6e                	lhu	a1,54(a2)
    43c8:	7325                	lui	t1,0xfffe9
    43ca:	0a0d                	addi	s4,s4,3
    43cc:	0000                	unimp
    43ce:	0000                	unimp
    43d0:	5f4e4143          	fmadd.q	ft2,ft8,fs4,fa1,rmm
    43d4:	6154                	flw	fa3,4(a0)
    43d6:	00006b73          	csrrsi	s6,ustatus,0
    43da:	0000                	unimp
    43dc:	4155                	li	sp,21
    43de:	5452                	lw	s0,52(sp)
    43e0:	545f 7361 006b      	0x6b7361545f
    43e6:	0000                	unimp
    43e8:	2e2e                	lhu	a1,26(a2)
    43ea:	6572462f          	0x6572462f
    43ee:	5265                	li	tp,-7
    43f0:	4f54                	lw	a3,28(a4)
    43f2:	6f702f53          	0x6f702f53
    43f6:	7472                	flw	fs0,60(sp)
    43f8:	6261                	lui	tp,0x18
    43fa:	656c                	flw	fa1,76(a0)
    43fc:	6d654d2f          	0x6d654d2f
    4400:	614d                	addi	sp,sp,176
    4402:	676e                	flw	fa4,216(sp)
    4404:	6165682f          	0x6165682f
    4408:	5f70                	lw	a2,124(a4)
    440a:	2e34                	lbu	a3,26(a2)
    440c:	00000063          	beqz	zero,440c <_read+0x100>
    4410:	7265                	lui	tp,0xffff9
    4412:	2072                	lhu	a2,6(s0)
    4414:	7461                	lui	s0,0xffff8
    4416:	6c20                	flw	fs0,88(s0)
    4418:	6e69                	lui	t3,0x1a
    441a:	2065                	jal	44c2 <_read+0x1b6>
    441c:	6425                	lui	s0,0x9
    441e:	6f20                	flw	fs0,88(a4)
    4420:	2066                	lhu	s1,6(s0)
    4422:	6966                	flw	fs2,88(sp)
    4424:	656c                	flw	fa1,76(a0)
    4426:	2220                	lbu	s0,2(a2)
    4428:	7325                	lui	t1,0xfffe9
    442a:	2e22                	lhu	s0,26(a2)
    442c:	0d20                	addi	s0,sp,664
    442e:	200a                	lhu	a0,0(s0)
    4430:	0000                	unimp
    4432:	0000                	unimp
    4434:	2e2e                	lhu	a1,26(a2)
    4436:	6572462f          	0x6572462f
    443a:	5265                	li	tp,-7
    443c:	4f54                	lw	a3,28(a4)
    443e:	6f702f53          	0x6f702f53
    4442:	7472                	flw	fs0,60(sp)
    4444:	6261                	lui	tp,0x18
    4446:	656c                	flw	fa1,76(a0)
    4448:	4343472f          	0x4343472f
    444c:	5349522f          	0x5349522f
    4450:	2f562d43          	fmadd.q	fs10,fa2,fs5,ft5,rdn
    4454:	6f70                	flw	fa2,92(a4)
    4456:	7472                	flw	fs0,60(sp)
    4458:	632e                	flw	ft6,200(sp)
    445a:	0000                	unimp
    445c:	2e2e                	lhu	a1,26(a2)
    445e:	6572462f          	0x6572462f
    4462:	5265                	li	tp,-7
    4464:	4f54                	lw	a3,28(a4)
    4466:	75712f53          	0x75712f53
    446a:	7565                	lui	a0,0xffff9
    446c:	2e65                	jal	4824 <_data_lma+0x2b0>
    446e:	2e2e0063          	beq	t3,sp,474e <_data_lma+0x1da>
    4472:	6572462f          	0x6572462f
    4476:	5265                	li	tp,-7
    4478:	4f54                	lw	a3,28(a4)
    447a:	61742f53          	0x61742f53
    447e:	2e736b73          	csrrsi	s6,0x2e7,6
    4482:	44490063          	beq	s2,tp,48c2 <_data_lma+0x34e>
    4486:	454c                	lw	a1,12(a0)
    4488:	0000                	unimp
    448a:	0000                	unimp
    448c:	2d72                	lhu	a2,30(a0)
    448e:	0000                	unimp
    4490:	2d72                	lhu	a2,30(a0)
    4492:	0000                	unimp
    4494:	2db2                	lhu	a2,26(a1)
    4496:	0000                	unimp
    4498:	2dbe                	lhu	a5,26(a1)
    449a:	0000                	unimp
    449c:	2dfe                	lhu	a5,30(a1)
    449e:	0000                	unimp
    44a0:	2d72                	lhu	a2,30(a0)
    44a2:	0000                	unimp
    44a4:	2d72                	lhu	a2,30(a0)
    44a6:	0000                	unimp
    44a8:	2db2                	lhu	a2,26(a1)
    44aa:	0000                	unimp
    44ac:	2dbe                	lhu	a5,26(a1)
    44ae:	0000                	unimp
    44b0:	6d54                	flw	fa3,28(a0)
    44b2:	5172                	lw	sp,60(sp)
    44b4:	0000                	unimp
    44b6:	0000                	unimp
    44b8:	2e2e                	lhu	a1,26(a2)
    44ba:	6572462f          	0x6572462f
    44be:	5265                	li	tp,-7
    44c0:	4f54                	lw	a3,28(a4)
    44c2:	69742f53          	0x69742f53
    44c6:	656d                	lui	a0,0x1b
    44c8:	7372                	flw	ft6,60(sp)
    44ca:	632e                	flw	ft6,200(sp)
    44cc:	0000                	unimp
    44ce:	0000                	unimp
    44d0:	6d54                	flw	fa3,28(a0)
    44d2:	2072                	lhu	a2,6(s0)
    44d4:	00637653          	fadd.s	fa2,ft6,ft6

000044d8 <__sf_fake_stderr>:
	...

000044f8 <__sf_fake_stdin>:
	...

00004518 <__sf_fake_stdout>:
	...
    4538:	2b302d23 00000020 004c6c68 45676665     #-0+ ...hlL.efgE
    4548:	00004746 33323130 37363534 42413938     FG..0123456789AB
    4558:	46454443 00000000 33323130 37363534     CDEF....01234567
    4568:	62613938 66656463 00000000              89abcdef....
